---
triple:          'arm64-apple-darwin'
binary-path:     'tests/05_empty_club'
relocations:
  - { offsetInCU: 0x53, offset: 0x53, size: 0x8, addend: 0x0, symName: _bt_test_usage, symObjAddr: 0x1EA8, symBinAddr: 0x100014000, symSize: 0x0 }
  - { offsetInCU: 0x6E, offset: 0x6E, size: 0x8, addend: 0x0, symName: _bt_test_names_argc, symObjAddr: 0x1EB0, symBinAddr: 0x100014008, symSize: 0x0 }
  - { offsetInCU: 0x8A, offset: 0x8A, size: 0x8, addend: 0x0, symName: __ZL21no_boats_queries_init, symObjAddr: 0x19C78, symBinAddr: 0x100014090, symSize: 0x0 }
  - { offsetInCU: 0xA8, offset: 0xA8, size: 0x8, addend: 0x0, symName: __ZL23no_persons_queries_init, symObjAddr: 0x19C7C, symBinAddr: 0x100014094, symSize: 0x0 }
  - { offsetInCU: 0xC1, offset: 0xC1, size: 0x8, addend: 0x0, symName: __ZL13bt_fork_tests, symObjAddr: 0x1EB4, symBinAddr: 0x10001400C, symSize: 0x0 }
  - { offsetInCU: 0xDA, offset: 0xDA, size: 0x8, addend: 0x0, symName: __ZL10bt_verbose, symObjAddr: 0x1EB8, symBinAddr: 0x100014010, symSize: 0x0 }
  - { offsetInCU: 0xF3, offset: 0xF3, size: 0x8, addend: 0x0, symName: __ZL10bt_timeout, symObjAddr: 0x1EBC, symBinAddr: 0x100014014, symSize: 0x0 }
  - { offsetInCU: 0x113, offset: 0x113, size: 0x8, addend: 0x0, symName: __ZL18bt_main_test_suite, symObjAddr: 0x19C68, symBinAddr: 0x100014080, symSize: 0x0 }
  - { offsetInCU: 0x181, offset: 0x181, size: 0x8, addend: 0x0, symName: __ZL13bt_pass_count, symObjAddr: 0x19C70, symBinAddr: 0x100014088, symSize: 0x0 }
  - { offsetInCU: 0x19A, offset: 0x19A, size: 0x8, addend: 0x0, symName: __ZL13bt_fail_count, symObjAddr: 0x19C74, symBinAddr: 0x10001408C, symSize: 0x0 }
  - { offsetInCU: 0x1B3, offset: 0x1B3, size: 0x8, addend: 0x0, symName: __ZL14bt_last_test_p, symObjAddr: 0x1ED0, symBinAddr: 0x100014028, symSize: 0x0 }
  - { offsetInCU: 0x1D1, offset: 0x1D1, size: 0x8, addend: 0x0, symName: __ZL16no_boats_queries, symObjAddr: 0x1EC0, symBinAddr: 0x100014018, symSize: 0x0 }
  - { offsetInCU: 0x1EA, offset: 0x1EA, size: 0x8, addend: 0x0, symName: __ZL22no_boats_queries_descr, symObjAddr: 0x1ED8, symBinAddr: 0x100014030, symSize: 0x0 }
  - { offsetInCU: 0x203, offset: 0x203, size: 0x8, addend: 0x0, symName: __ZL18no_persons_queries, symObjAddr: 0x1EC8, symBinAddr: 0x100014020, symSize: 0x0 }
  - { offsetInCU: 0x21C, offset: 0x21C, size: 0x8, addend: 0x0, symName: __ZL24no_persons_queries_descr, symObjAddr: 0x1F00, symBinAddr: 0x100014058, symSize: 0x0 }
  - { offsetInCU: 0x30FB, offset: 0x30FB, size: 0x8, addend: 0x0, symName: __ZNSt3__124__put_character_sequenceB8ue170006IcNS_11char_traitsIcEEEERNS_13basic_ostreamIT_T0_EES7_PKS4_m, symObjAddr: 0xC88, symBinAddr: 0x100002224, symSize: 0x1EC }
  - { offsetInCU: 0x4A4F, offset: 0x4A4F, size: 0x8, addend: 0x0, symName: __ZNSt3__1lsB8ue170006INS_11char_traitsIcEEEERNS_13basic_ostreamIcT_EES6_PKc, symObjAddr: 0xBBC, symBinAddr: 0x100002158, symSize: 0x48 }
  - { offsetInCU: 0x4A95, offset: 0x4A95, size: 0x8, addend: 0x0, symName: __ZNSt3__14endlB8ue170006IcNS_11char_traitsIcEEEERNS_13basic_ostreamIT_T0_EES7_, symObjAddr: 0xC30, symBinAddr: 0x1000021CC, symSize: 0x58 }
  - { offsetInCU: 0x4AD5, offset: 0x4AD5, size: 0x8, addend: 0x0, symName: __ZNSt3__116__pad_and_outputB8ue170006IcNS_11char_traitsIcEEEENS_19ostreambuf_iteratorIT_T0_EES6_PKS4_S8_S8_RNS_8ios_baseES4_, symObjAddr: 0xEC4, symBinAddr: 0x100002460, symSize: 0x240 }
  - { offsetInCU: 0x4BA4, offset: 0x4BA4, size: 0x8, addend: 0x0, symName: __ZNSt3__112__to_addressB8ue170006IKcEEPT_S3_, symObjAddr: 0x1438, symBinAddr: 0x1000029D4, symSize: 0x14 }
  - { offsetInCU: 0x4C0C, offset: 0x4C0C, size: 0x8, addend: 0x0, symName: __ZNSt3__19use_facetB8ue170006INS_5ctypeIcEEEERKT_RKNS_6localeE, symObjAddr: 0x16B8, symBinAddr: 0x100002C54, symSize: 0x2C }
  - { offsetInCU: 0x50D9, offset: 0x50D9, size: 0x8, addend: 0x0, symName: __ZNSt3__118__constexpr_strlenB8ue170006EPKc, symObjAddr: 0x1750, symBinAddr: 0x100002CEC, symSize: 0x24 }
  - { offsetInCU: 0x7776, offset: 0x7776, size: 0x8, addend: 0x0, symName: __Z13bt_parse_argsiPPc, symObjAddr: 0x0, symBinAddr: 0x10000159C, symSize: 0x1D0 }
  - { offsetInCU: 0x77CC, offset: 0x77CC, size: 0x8, addend: 0x0, symName: __Z14bt_test_driveriPPc, symObjAddr: 0x1D0, symBinAddr: 0x10000176C, symSize: 0x1AC }
  - { offsetInCU: 0x7860, offset: 0x7860, size: 0x8, addend: 0x0, symName: __ZL22bt_run_and_record_testPK18bt_test_descriptor, symObjAddr: 0x37C, symBinAddr: 0x100001918, symSize: 0x10C }
  - { offsetInCU: 0x788A, offset: 0x788A, size: 0x8, addend: 0x0, symName: __ZL11bt_add_testP18bt_test_descriptor, symObjAddr: 0x488, symBinAddr: 0x100001A24, symSize: 0x38 }
  - { offsetInCU: 0x78B6, offset: 0x78B6, size: 0x8, addend: 0x0, symName: _main, symObjAddr: 0x4C0, symBinAddr: 0x100001A5C, symSize: 0x30 }
  - { offsetInCU: 0x78EC, offset: 0x78EC, size: 0x8, addend: 0x0, symName: __ZL11bt_run_testPK18bt_test_descriptor, symObjAddr: 0x4F0, symBinAddr: 0x100001A8C, symSize: 0x3F0 }
  - { offsetInCU: 0x798D, offset: 0x798D, size: 0x8, addend: 0x0, symName: __ZL19no_boats_queries_fnv, symObjAddr: 0x91C, symBinAddr: 0x100001EB8, symSize: 0x2A0 }
  - { offsetInCU: 0x7A37, offset: 0x7A37, size: 0x8, addend: 0x0, symName: __ZNSt3__113basic_ostreamIcNS_11char_traitsIcEEElsB8ue170006EPFRS3_S4_E, symObjAddr: 0xC04, symBinAddr: 0x1000021A0, symSize: 0x2C }
  - { offsetInCU: 0x7A69, offset: 0x7A69, size: 0x8, addend: 0x0, symName: __ZNSt3__111char_traitsIcE6lengthB8ue170006EPKc, symObjAddr: 0xE74, symBinAddr: 0x100002410, symSize: 0x34 }
  - { offsetInCU: 0x7AA9, offset: 0x7AA9, size: 0x8, addend: 0x0, symName: __ZNKSt3__113basic_ostreamIcNS_11char_traitsIcEEE6sentrycvbB8ue170006Ev, symObjAddr: 0xEA8, symBinAddr: 0x100002444, symSize: 0x1C }
  - { offsetInCU: 0x7ACD, offset: 0x7ACD, size: 0x8, addend: 0x0, symName: __ZNSt3__119ostreambuf_iteratorIcNS_11char_traitsIcEEEC1B8ue170006ERNS_13basic_ostreamIcS2_EE, symObjAddr: 0x1104, symBinAddr: 0x1000026A0, symSize: 0x34 }
  - { offsetInCU: 0x7B04, offset: 0x7B04, size: 0x8, addend: 0x0, symName: __ZNKSt3__18ios_base5flagsB8ue170006Ev, symObjAddr: 0x1138, symBinAddr: 0x1000026D4, symSize: 0x18 }
  - { offsetInCU: 0x7B2A, offset: 0x7B2A, size: 0x8, addend: 0x0, symName: __ZNKSt3__19basic_iosIcNS_11char_traitsIcEEE4fillB8ue170006Ev, symObjAddr: 0x1150, symBinAddr: 0x1000026EC, symSize: 0x64 }
  - { offsetInCU: 0x7B4F, offset: 0x7B4F, size: 0x8, addend: 0x0, symName: __ZNKSt3__119ostreambuf_iteratorIcNS_11char_traitsIcEEE6failedB8ue170006Ev, symObjAddr: 0x11B4, symBinAddr: 0x100002750, symSize: 0x24 }
  - { offsetInCU: 0x7B73, offset: 0x7B73, size: 0x8, addend: 0x0, symName: __ZNSt3__19basic_iosIcNS_11char_traitsIcEEE8setstateB8ue170006Ej, symObjAddr: 0x11D8, symBinAddr: 0x100002774, symSize: 0x2C }
  - { offsetInCU: 0x7BA7, offset: 0x7BA7, size: 0x8, addend: 0x0, symName: __ZNKSt3__18ios_base5widthB8ue170006Ev, symObjAddr: 0x1210, symBinAddr: 0x1000027AC, symSize: 0x18 }
  - { offsetInCU: 0x7BCC, offset: 0x7BCC, size: 0x8, addend: 0x0, symName: __ZNSt3__115basic_streambufIcNS_11char_traitsIcEEE5sputnB8ue170006EPKcl, symObjAddr: 0x1228, symBinAddr: 0x1000027C4, symSize: 0x3C }
  - { offsetInCU: 0x7C0C, offset: 0x7C0C, size: 0x8, addend: 0x0, symName: __ZNSt3__112basic_stringIcNS_11char_traitsIcEENS_9allocatorIcEEEC1B8ue170006Emc, symObjAddr: 0x1264, symBinAddr: 0x100002800, symSize: 0x3C }
  - { offsetInCU: 0x7C52, offset: 0x7C52, size: 0x8, addend: 0x0, symName: __ZNKSt3__112basic_stringIcNS_11char_traitsIcEENS_9allocatorIcEEE4dataB8ue170006Ev, symObjAddr: 0x12A0, symBinAddr: 0x10000283C, symSize: 0x28 }
  - { offsetInCU: 0x7C77, offset: 0x7C77, size: 0x8, addend: 0x0, symName: __ZNSt3__18ios_base5widthB8ue170006El, symObjAddr: 0x12C8, symBinAddr: 0x100002864, symSize: 0x2C }
  - { offsetInCU: 0x7CBA, offset: 0x7CBA, size: 0x8, addend: 0x0, symName: __ZNSt3__112basic_stringIcNS_11char_traitsIcEENS_9allocatorIcEEEC2B8ue170006Emc, symObjAddr: 0x12F4, symBinAddr: 0x100002890, symSize: 0x4C }
  - { offsetInCU: 0x7D05, offset: 0x7D05, size: 0x8, addend: 0x0, symName: __ZNSt3__117__compressed_pairINS_12basic_stringIcNS_11char_traitsIcEENS_9allocatorIcEEE5__repES5_EC1B8ue170006INS_18__default_init_tagESA_EEOT_OT0_, symObjAddr: 0x1340, symBinAddr: 0x1000028DC, symSize: 0x3C }
  - { offsetInCU: 0x7D5B, offset: 0x7D5B, size: 0x8, addend: 0x0, symName: __ZNSt3__117__compressed_pairINS_12basic_stringIcNS_11char_traitsIcEENS_9allocatorIcEEE5__repES5_EC2B8ue170006INS_18__default_init_tagESA_EEOT_OT0_, symObjAddr: 0x137C, symBinAddr: 0x100002918, symSize: 0x3C }
  - { offsetInCU: 0x7DB2, offset: 0x7DB2, size: 0x8, addend: 0x0, symName: __ZNSt3__122__compressed_pair_elemINS_12basic_stringIcNS_11char_traitsIcEENS_9allocatorIcEEE5__repELi0ELb0EEC2B8ue170006ENS_18__default_init_tagE, symObjAddr: 0x13B8, symBinAddr: 0x100002954, symSize: 0x14 }
  - { offsetInCU: 0x7DE3, offset: 0x7DE3, size: 0x8, addend: 0x0, symName: __ZNSt3__122__compressed_pair_elemINS_9allocatorIcEELi1ELb1EEC2B8ue170006ENS_18__default_init_tagE, symObjAddr: 0x13CC, symBinAddr: 0x100002968, symSize: 0x2C }
  - { offsetInCU: 0x7E15, offset: 0x7E15, size: 0x8, addend: 0x0, symName: __ZNSt3__19allocatorIcEC2B8ue170006Ev, symObjAddr: 0x13F8, symBinAddr: 0x100002994, symSize: 0x2C }
  - { offsetInCU: 0x7E3E, offset: 0x7E3E, size: 0x8, addend: 0x0, symName: __ZNSt3__116__non_trivial_ifILb1ENS_9allocatorIcEEEC2B8ue170006Ev, symObjAddr: 0x1424, symBinAddr: 0x1000029C0, symSize: 0x14 }
  - { offsetInCU: 0x7E65, offset: 0x7E65, size: 0x8, addend: 0x0, symName: __ZNKSt3__112basic_stringIcNS_11char_traitsIcEENS_9allocatorIcEEE13__get_pointerB8ue170006Ev, symObjAddr: 0x144C, symBinAddr: 0x1000029E8, symSize: 0x54 }
  - { offsetInCU: 0x7E89, offset: 0x7E89, size: 0x8, addend: 0x0, symName: __ZNKSt3__112basic_stringIcNS_11char_traitsIcEENS_9allocatorIcEEE9__is_longB8ue170006Ev, symObjAddr: 0x14A0, symBinAddr: 0x100002A3C, symSize: 0x38 }
  - { offsetInCU: 0x7EAD, offset: 0x7EAD, size: 0x8, addend: 0x0, symName: __ZNKSt3__112basic_stringIcNS_11char_traitsIcEENS_9allocatorIcEEE18__get_long_pointerB8ue170006Ev, symObjAddr: 0x14D8, symBinAddr: 0x100002A74, symSize: 0x28 }
  - { offsetInCU: 0x7ED1, offset: 0x7ED1, size: 0x8, addend: 0x0, symName: __ZNKSt3__112basic_stringIcNS_11char_traitsIcEENS_9allocatorIcEEE19__get_short_pointerB8ue170006Ev, symObjAddr: 0x1500, symBinAddr: 0x100002A9C, symSize: 0x28 }
  - { offsetInCU: 0x7EF5, offset: 0x7EF5, size: 0x8, addend: 0x0, symName: __ZNKSt3__117__compressed_pairINS_12basic_stringIcNS_11char_traitsIcEENS_9allocatorIcEEE5__repES5_E5firstB8ue170006Ev, symObjAddr: 0x1528, symBinAddr: 0x100002AC4, symSize: 0x24 }
  - { offsetInCU: 0x7F19, offset: 0x7F19, size: 0x8, addend: 0x0, symName: __ZNKSt3__122__compressed_pair_elemINS_12basic_stringIcNS_11char_traitsIcEENS_9allocatorIcEEE5__repELi0ELb0EE5__getB8ue170006Ev, symObjAddr: 0x154C, symBinAddr: 0x100002AE8, symSize: 0x14 }
  - { offsetInCU: 0x7F3E, offset: 0x7F3E, size: 0x8, addend: 0x0, symName: __ZNSt3__114pointer_traitsIPKcE10pointer_toB8ue170006ERS1_, symObjAddr: 0x1560, symBinAddr: 0x100002AFC, symSize: 0x14 }
  - { offsetInCU: 0x7F60, offset: 0x7F60, size: 0x8, addend: 0x0, symName: __ZNSt3__119ostreambuf_iteratorIcNS_11char_traitsIcEEEC2B8ue170006ERNS_13basic_ostreamIcS2_EE, symObjAddr: 0x1574, symBinAddr: 0x100002B10, symSize: 0x54 }
  - { offsetInCU: 0x7F97, offset: 0x7F97, size: 0x8, addend: 0x0, symName: __ZNKSt3__19basic_iosIcNS_11char_traitsIcEEE5rdbufB8ue170006Ev, symObjAddr: 0x15C8, symBinAddr: 0x100002B64, symSize: 0x24 }
  - { offsetInCU: 0x7FBC, offset: 0x7FBC, size: 0x8, addend: 0x0, symName: __ZNKSt3__18ios_base5rdbufB8ue170006Ev, symObjAddr: 0x15EC, symBinAddr: 0x100002B88, symSize: 0x18 }
  - { offsetInCU: 0x7FE1, offset: 0x7FE1, size: 0x8, addend: 0x0, symName: __ZNSt3__111char_traitsIcE11eq_int_typeB8ue170006Eii, symObjAddr: 0x1604, symBinAddr: 0x100002BA0, symSize: 0x28 }
  - { offsetInCU: 0x8014, offset: 0x8014, size: 0x8, addend: 0x0, symName: __ZNSt3__111char_traitsIcE3eofB8ue170006Ev, symObjAddr: 0x162C, symBinAddr: 0x100002BC8, symSize: 0x8 }
  - { offsetInCU: 0x8028, offset: 0x8028, size: 0x8, addend: 0x0, symName: __ZNKSt3__19basic_iosIcNS_11char_traitsIcEEE5widenB8ue170006Ec, symObjAddr: 0x1634, symBinAddr: 0x100002BD0, symSize: 0x84 }
  - { offsetInCU: 0x8093, offset: 0x8093, size: 0x8, addend: 0x0, symName: __ZNKSt3__15ctypeIcE5widenB8ue170006Ec, symObjAddr: 0x16E4, symBinAddr: 0x100002C80, symSize: 0x38 }
  - { offsetInCU: 0x80C7, offset: 0x80C7, size: 0x8, addend: 0x0, symName: __ZNSt3__18ios_base8setstateB8ue170006Ej, symObjAddr: 0x171C, symBinAddr: 0x100002CB8, symSize: 0x34 }
  - { offsetInCU: 0x80FB, offset: 0x80FB, size: 0x8, addend: 0x0, symName: __ZL21no_persons_queries_fnv, symObjAddr: 0x1774, symBinAddr: 0x100002D10, symSize: 0x1D4 }
  - { offsetInCU: 0x7B65, offset: 0xFE3B, size: 0x8, addend: 0x0, symName: __ZNSt3__17advanceB8ue170006INS_21__tree_const_iteratorINS_12__value_typeINS_12basic_stringIcNS_11char_traitsIcEENS_9allocatorIcEEEE4boatEEPNS_11__tree_nodeISA_PvEElEEllvEEvRT_T0_, symObjAddr: 0x4E98, symBinAddr: 0x100007B38, symSize: 0x38 }
  - { offsetInCU: 0x7BF9, offset: 0xFECF, size: 0x8, addend: 0x0, symName: __ZNSt3__17advanceB8ue170006INS_21__tree_const_iteratorINS_12__value_typeINS_12basic_stringIcNS_11char_traitsIcEENS_9allocatorIcEEEE6memberEEPNS_11__tree_nodeISA_PvEElEEllvEEvRT_T0_, symObjAddr: 0x6C8C, symBinAddr: 0x10000992C, symSize: 0x38 }
  - { offsetInCU: 0x955C, offset: 0x11832, size: 0x8, addend: 0x0, symName: __ZNSt3__17advanceB8ue170006IPNS_12basic_stringIcNS_11char_traitsIcEENS_9allocatorIcEEEEllvEEvRT_T0_, symObjAddr: 0x8E5C, symBinAddr: 0x10000BA90, symSize: 0x38 }
  - { offsetInCU: 0xA9C3, offset: 0x12C99, size: 0x8, addend: 0x0, symName: __ZNSt3__1neB8ue170006ERKNS_14__map_iteratorINS_15__tree_iteratorINS_12__value_typeINS_12basic_stringIcNS_11char_traitsIcEENS_9allocatorIcEEEE4boatEEPNS_11__tree_nodeISA_PvEElEEEESI_, symObjAddr: 0x604, symBinAddr: 0x10000353C, symSize: 0x30 }
  - { offsetInCU: 0xAA00, offset: 0x12CD6, size: 0x8, addend: 0x0, symName: __ZNSt3__19make_pairB8ue170006IRPKcR4boatEENS_4pairINS_18__unwrap_ref_decayIT_E4typeENS7_IT0_E4typeEEEOS8_OSB_, symObjAddr: 0x778, symBinAddr: 0x1000036B0, symSize: 0x38 }
  - { offsetInCU: 0xAAFC, offset: 0x12DD2, size: 0x8, addend: 0x0, symName: __ZNSt3__1neB8ue170006ERKNS_14__map_iteratorINS_15__tree_iteratorINS_12__value_typeINS_12basic_stringIcNS_11char_traitsIcEENS_9allocatorIcEEEE6memberEEPNS_11__tree_nodeISA_PvEElEEEESI_, symObjAddr: 0xA70, symBinAddr: 0x1000039A8, symSize: 0x30 }
  - { offsetInCU: 0xAB39, offset: 0x12E0F, size: 0x8, addend: 0x0, symName: __ZNSt3__19make_pairB8ue170006IRPKcR6memberEENS_4pairINS_18__unwrap_ref_decayIT_E4typeENS7_IT0_E4typeEEEOS8_OSB_, symObjAddr: 0xB64, symBinAddr: 0x100003A9C, symSize: 0x38 }
  - { offsetInCU: 0xAC35, offset: 0x12F0B, size: 0x8, addend: 0x0, symName: __ZNSt3__1eqB8ue170006ERKNS_14__map_iteratorINS_15__tree_iteratorINS_12__value_typeINS_12basic_stringIcNS_11char_traitsIcEENS_9allocatorIcEEEE4boatEEPNS_11__tree_nodeISA_PvEElEEEESI_, symObjAddr: 0x1024, symBinAddr: 0x100003F5C, symSize: 0x30 }
  - { offsetInCU: 0xAC72, offset: 0x12F48, size: 0x8, addend: 0x0, symName: __ZNSt3__1eqB8ue170006ERKNS_14__map_iteratorINS_15__tree_iteratorINS_12__value_typeINS_12basic_stringIcNS_11char_traitsIcEENS_9allocatorIcEEEE6memberEEPNS_11__tree_nodeISA_PvEElEEEESI_, symObjAddr: 0x1508, symBinAddr: 0x100004440, symSize: 0x30 }
  - { offsetInCU: 0xACAF, offset: 0x12F85, size: 0x8, addend: 0x0, symName: __ZNSt3__1neB8ue170006IPNS_12basic_stringIcNS_11char_traitsIcEENS_9allocatorIcEEEEEEbRKNS_11__wrap_iterIT_EESC_, symObjAddr: 0x18FC, symBinAddr: 0x100004834, symSize: 0x34 }
  - { offsetInCU: 0xACF2, offset: 0x12FC8, size: 0x8, addend: 0x0, symName: __ZNSt3__130__libcpp_is_constant_evaluatedB8ue170006Ev, symObjAddr: 0x2574, symBinAddr: 0x1000053B4, symSize: 0xC }
  - { offsetInCU: 0xAD10, offset: 0x12FE6, size: 0x8, addend: 0x0, symName: __ZNSt3__117__libcpp_allocateB8ue170006Emm, symObjAddr: 0x286C, symBinAddr: 0x1000056AC, symSize: 0x28 }
  - { offsetInCU: 0xAD4D, offset: 0x13023, size: 0x8, addend: 0x0, symName: __ZNSt3__121__libcpp_operator_newB8ue170006IJmEEEPvDpT_, symObjAddr: 0x28A8, symBinAddr: 0x1000056E8, symSize: 0x24 }
  - { offsetInCU: 0xADBB, offset: 0x13091, size: 0x8, addend: 0x0, symName: __ZNSt3__119__libcpp_deallocateB8ue170006EPvmm, symObjAddr: 0x32E4, symBinAddr: 0x100006124, symSize: 0x30 }
  - { offsetInCU: 0xAE03, offset: 0x130D9, size: 0x8, addend: 0x0, symName: __ZNSt3__127__do_deallocate_handle_sizeB8ue170006IJEEEvPvmDpT_, symObjAddr: 0x3314, symBinAddr: 0x100006154, symSize: 0x28 }
  - { offsetInCU: 0xAE42, offset: 0x13118, size: 0x8, addend: 0x0, symName: __ZNSt3__124__libcpp_operator_deleteB8ue170006IJPvEEEvDpT_, symObjAddr: 0x333C, symBinAddr: 0x10000617C, symSize: 0x24 }
  - { offsetInCU: 0xAE79, offset: 0x1314F, size: 0x8, addend: 0x0, symName: __ZNSt3__1neB8ue170006ERKNS_20__map_const_iteratorINS_21__tree_const_iteratorINS_12__value_typeINS_12basic_stringIcNS_11char_traitsIcEENS_9allocatorIcEEEE4boatEEPNS_11__tree_nodeISA_PvEElEEEESI_, symObjAddr: 0x39F0, symBinAddr: 0x100006830, symSize: 0x30 }
  - { offsetInCU: 0xAEB6, offset: 0x1318C, size: 0x8, addend: 0x0, symName: __ZNSt3__1neB8ue170006ERKNS_21__tree_const_iteratorINS_12__value_typeINS_12basic_stringIcNS_11char_traitsIcEENS_9allocatorIcEEEE4boatEEPNS_11__tree_nodeIS9_PvEElEESG_, symObjAddr: 0x3AF8, symBinAddr: 0x100006938, symSize: 0x34 }
  - { offsetInCU: 0xAEF3, offset: 0x131C9, size: 0x8, addend: 0x0, symName: __ZNSt3__1eqB8ue170006ERKNS_21__tree_const_iteratorINS_12__value_typeINS_12basic_stringIcNS_11char_traitsIcEENS_9allocatorIcEEEE4boatEEPNS_11__tree_nodeIS9_PvEElEESG_, symObjAddr: 0x3B2C, symBinAddr: 0x10000696C, symSize: 0x30 }
  - { offsetInCU: 0xAF56, offset: 0x1322C, size: 0x8, addend: 0x0, symName: __ZNSt3__14nextB8ue170006INS_21__tree_const_iteratorINS_12__value_typeINS_12basic_stringIcNS_11char_traitsIcEENS_9allocatorIcEEEE4boatEEPNS_11__tree_nodeISA_PvEElEEEENS_9enable_ifIXsr29__has_input_iterator_categoryIT_EE5valueESH_E4typeESH_NS_15iterator_traitsISH_E15difference_typeE, symObjAddr: 0x4614, symBinAddr: 0x100007454, symSize: 0x3C }
  - { offsetInCU: 0xAF99, offset: 0x1326F, size: 0x8, addend: 0x0, symName: __ZNSt3__1ltB8ue170006IcNS_11char_traitsIcEENS_9allocatorIcEEEEbRKNS_12basic_stringIT_T0_T1_EESB_, symObjAddr: 0x4724, symBinAddr: 0x100007564, symSize: 0x38 }
  - { offsetInCU: 0xAFF1, offset: 0x132C7, size: 0x8, addend: 0x0, symName: __ZNSt3__13minB8ue170006ImEERKT_S3_S3_, symObjAddr: 0x4A48, symBinAddr: 0x100007860, symSize: 0x2C }
  - { offsetInCU: 0xB034, offset: 0x1330A, size: 0x8, addend: 0x0, symName: __ZNSt3__13minB8ue170006ImNS_6__lessIvvEEEERKT_S5_S5_T0_, symObjAddr: 0x4C48, symBinAddr: 0x1000078E8, symSize: 0x54 }
  - { offsetInCU: 0xB0D5, offset: 0x133AB, size: 0x8, addend: 0x0, symName: __ZNSt3__116__tree_prev_iterB8ue170006IPNS_16__tree_node_baseIPvEEPNS_15__tree_end_nodeIS4_EEEET_T0_, symObjAddr: 0x4D38, symBinAddr: 0x1000079D8, symSize: 0xB8 }
  - { offsetInCU: 0xB121, offset: 0x133F7, size: 0x8, addend: 0x0, symName: __ZNSt3__110__tree_maxB8ue170006IPNS_16__tree_node_baseIPvEEEET_S5_, symObjAddr: 0x4DF0, symBinAddr: 0x100007A90, symSize: 0x40 }
  - { offsetInCU: 0xB156, offset: 0x1342C, size: 0x8, addend: 0x0, symName: __ZNSt3__120__tree_is_left_childB8ue170006IPNS_16__tree_node_baseIPvEEEEbT_, symObjAddr: 0x4E30, symBinAddr: 0x100007AD0, symSize: 0x2C }
  - { offsetInCU: 0xB18B, offset: 0x13461, size: 0x8, addend: 0x0, symName: __ZNSt3__121__convert_to_integralB8ue170006El, symObjAddr: 0x4ED0, symBinAddr: 0x100007B70, symSize: 0x14 }
  - { offsetInCU: 0xB1B7, offset: 0x1348D, size: 0x8, addend: 0x0, symName: __ZNSt3__19__advanceB8ue170006INS_21__tree_const_iteratorINS_12__value_typeINS_12basic_stringIcNS_11char_traitsIcEENS_9allocatorIcEEEE4boatEEPNS_11__tree_nodeISA_PvEElEEEEvRT_NS_15iterator_traitsISG_E15difference_typeENS_26bidirectional_iterator_tagE, symObjAddr: 0x4EE4, symBinAddr: 0x100007B84, symSize: 0xA4 }
  - { offsetInCU: 0xB201, offset: 0x134D7, size: 0x8, addend: 0x0, symName: __ZNSt3__116__tree_next_iterB8ue170006IPNS_15__tree_end_nodeIPNS_16__tree_node_baseIPvEEEES5_EET_T0_, symObjAddr: 0x4FC0, symBinAddr: 0x100007C60, symSize: 0x80 }
  - { offsetInCU: 0xB23F, offset: 0x13515, size: 0x8, addend: 0x0, symName: __ZNSt3__110__tree_minB8ue170006IPNS_16__tree_node_baseIPvEEEET_S5_, symObjAddr: 0x5040, symBinAddr: 0x100007CE0, symSize: 0x40 }
  - { offsetInCU: 0xB292, offset: 0x13568, size: 0x8, addend: 0x0, symName: __ZNSt3__127__tree_balance_after_insertB8ue170006IPNS_16__tree_node_baseIPvEEEEvT_S5_, symObjAddr: 0x54F8, symBinAddr: 0x100008198, symSize: 0x27C }
  - { offsetInCU: 0xB30E, offset: 0x135E4, size: 0x8, addend: 0x0, symName: __ZNSt3__118__tree_left_rotateB8ue170006IPNS_16__tree_node_baseIPvEEEEvT_, symObjAddr: 0x5774, symBinAddr: 0x100008414, symSize: 0xEC }
  - { offsetInCU: 0xB350, offset: 0x13626, size: 0x8, addend: 0x0, symName: __ZNSt3__119__tree_right_rotateB8ue170006IPNS_16__tree_node_baseIPvEEEEvT_, symObjAddr: 0x5860, symBinAddr: 0x100008500, symSize: 0xCC }
  - { offsetInCU: 0xB3C5, offset: 0x1369B, size: 0x8, addend: 0x0, symName: __ZNSt3__1neB8ue170006ERKNS_20__map_const_iteratorINS_21__tree_const_iteratorINS_12__value_typeINS_12basic_stringIcNS_11char_traitsIcEENS_9allocatorIcEEEE6memberEEPNS_11__tree_nodeISA_PvEElEEEESI_, symObjAddr: 0x5F68, symBinAddr: 0x100008C08, symSize: 0x30 }
  - { offsetInCU: 0xB402, offset: 0x136D8, size: 0x8, addend: 0x0, symName: __ZNSt3__1neB8ue170006ERKNS_21__tree_const_iteratorINS_12__value_typeINS_12basic_stringIcNS_11char_traitsIcEENS_9allocatorIcEEEE6memberEEPNS_11__tree_nodeIS9_PvEElEESG_, symObjAddr: 0x6070, symBinAddr: 0x100008D10, symSize: 0x34 }
  - { offsetInCU: 0xB43F, offset: 0x13715, size: 0x8, addend: 0x0, symName: __ZNSt3__1eqB8ue170006ERKNS_21__tree_const_iteratorINS_12__value_typeINS_12basic_stringIcNS_11char_traitsIcEENS_9allocatorIcEEEE6memberEEPNS_11__tree_nodeIS9_PvEElEESG_, symObjAddr: 0x60A4, symBinAddr: 0x100008D44, symSize: 0x30 }
  - { offsetInCU: 0xB47D, offset: 0x13753, size: 0x8, addend: 0x0, symName: __ZNSt3__14nextB8ue170006INS_21__tree_const_iteratorINS_12__value_typeINS_12basic_stringIcNS_11char_traitsIcEENS_9allocatorIcEEEE6memberEEPNS_11__tree_nodeISA_PvEElEEEENS_9enable_ifIXsr29__has_input_iterator_categoryIT_EE5valueESH_E4typeESH_NS_15iterator_traitsISH_E15difference_typeE, symObjAddr: 0x6B8C, symBinAddr: 0x10000982C, symSize: 0x3C }
  - { offsetInCU: 0xB4C0, offset: 0x13796, size: 0x8, addend: 0x0, symName: __ZNSt3__19__advanceB8ue170006INS_21__tree_const_iteratorINS_12__value_typeINS_12basic_stringIcNS_11char_traitsIcEENS_9allocatorIcEEEE6memberEEPNS_11__tree_nodeISA_PvEElEEEEvRT_NS_15iterator_traitsISG_E15difference_typeENS_26bidirectional_iterator_tagE, symObjAddr: 0x6CC4, symBinAddr: 0x100009964, symSize: 0xA4 }
  - { offsetInCU: 0xB55B, offset: 0x13831, size: 0x8, addend: 0x0, symName: __ZNSt3__1neB8ue170006ERKNS_15__tree_iteratorINS_12__value_typeINS_12basic_stringIcNS_11char_traitsIcEENS_9allocatorIcEEEE4boatEEPNS_11__tree_nodeIS9_PvEElEESG_, symObjAddr: 0x76F0, symBinAddr: 0x10000A390, symSize: 0x34 }
  - { offsetInCU: 0xB598, offset: 0x1386E, size: 0x8, addend: 0x0, symName: __ZNSt3__1eqB8ue170006ERKNS_15__tree_iteratorINS_12__value_typeINS_12basic_stringIcNS_11char_traitsIcEENS_9allocatorIcEEEE4boatEEPNS_11__tree_nodeIS9_PvEElEESG_, symObjAddr: 0x774C, symBinAddr: 0x10000A3EC, symSize: 0x30 }
  - { offsetInCU: 0xB7E1, offset: 0x13AB7, size: 0x8, addend: 0x0, symName: __ZNSt3__1neB8ue170006ERKNS_15__tree_iteratorINS_12__value_typeINS_12basic_stringIcNS_11char_traitsIcEENS_9allocatorIcEEEE6memberEEPNS_11__tree_nodeIS9_PvEElEESG_, symObjAddr: 0x7EEC, symBinAddr: 0x10000AB20, symSize: 0x34 }
  - { offsetInCU: 0xB81E, offset: 0x13AF4, size: 0x8, addend: 0x0, symName: __ZNSt3__1eqB8ue170006ERKNS_15__tree_iteratorINS_12__value_typeINS_12basic_stringIcNS_11char_traitsIcEENS_9allocatorIcEEEE6memberEEPNS_11__tree_nodeIS9_PvEElEESG_, symObjAddr: 0x7F48, symBinAddr: 0x10000AB7C, symSize: 0x30 }
  - { offsetInCU: 0xB85C, offset: 0x13B32, size: 0x8, addend: 0x0, symName: __ZNSt3__112__to_addressB8ue170006INS_12basic_stringIcNS_11char_traitsIcEENS_9allocatorIcEEEEEEPT_S8_, symObjAddr: 0x86E4, symBinAddr: 0x10000B318, symSize: 0x14 }
  - { offsetInCU: 0xB891, offset: 0x13B67, size: 0x8, addend: 0x0, symName: __ZNSt3__18distanceB8ue170006IPNS_12basic_stringIcNS_11char_traitsIcEENS_9allocatorIcEEEEEENS_15iterator_traitsIT_E15difference_typeES9_S9_, symObjAddr: 0x8A9C, symBinAddr: 0x10000B6D0, symSize: 0x2C }
  - { offsetInCU: 0xB8D4, offset: 0x13BAA, size: 0x8, addend: 0x0, symName: __ZNSt3__14nextB8ue170006IPNS_12basic_stringIcNS_11char_traitsIcEENS_9allocatorIcEEEEEENS_9enable_ifIXsr29__has_input_iterator_categoryIT_EE5valueES9_E4typeES9_NS_15iterator_traitsIS9_E15difference_typeE, symObjAddr: 0x8AC8, symBinAddr: 0x10000B6FC, symSize: 0x34 }
  - { offsetInCU: 0xB917, offset: 0x13BED, size: 0x8, addend: 0x0, symName: __ZNSt3__14copyB8ue170006IPNS_12basic_stringIcNS_11char_traitsIcEENS_9allocatorIcEEEES7_EET0_T_S9_S8_, symObjAddr: 0x8AFC, symBinAddr: 0x10000B730, symSize: 0x40 }
  - { offsetInCU: 0xB971, offset: 0x13C47, size: 0x8, addend: 0x0, symName: __ZNSt3__16__copyB8ue170006INS_17_ClassicAlgPolicyEPNS_12basic_stringIcNS_11char_traitsIcEENS_9allocatorIcEEEES8_S8_EENS_4pairIT0_T2_EESA_T1_SB_, symObjAddr: 0x8BD0, symBinAddr: 0x10000B804, symSize: 0x44 }
  - { offsetInCU: 0xB9DD, offset: 0x13CB3, size: 0x8, addend: 0x0, symName: __ZNSt3__19__advanceB8ue170006IPNS_12basic_stringIcNS_11char_traitsIcEENS_9allocatorIcEEEEEEvRT_NS_15iterator_traitsIS8_E15difference_typeENS_26random_access_iterator_tagE, symObjAddr: 0x8E94, symBinAddr: 0x10000BAC8, symSize: 0x30 }
  - { offsetInCU: 0xBA27, offset: 0x13CFD, size: 0x8, addend: 0x0, symName: __ZNSt3__130__uninitialized_allocator_copyB8ue170006INS_9allocatorINS_12basic_stringIcNS_11char_traitsIcEENS1_IcEEEEEEPS6_S8_S8_EET2_RT_T0_T1_S9_, symObjAddr: 0x8F00, symBinAddr: 0x10000BB34, symSize: 0x80 }
  - { offsetInCU: 0xBAC4, offset: 0x13D9A, size: 0x8, addend: 0x0, symName: __ZNSt3__114__unwrap_rangeB8ue170006IPNS_12basic_stringIcNS_11char_traitsIcEENS_9allocatorIcEEEES7_EENS_4pairIT0_S9_EET_SB_, symObjAddr: 0x8FF8, symBinAddr: 0x10000BC2C, symSize: 0x60 }
  - { offsetInCU: 0xBB10, offset: 0x13DE6, size: 0x8, addend: 0x0, symName: __ZNSt3__135__uninitialized_allocator_copy_implB8ue170006INS_9allocatorINS_12basic_stringIcNS_11char_traitsIcEENS1_IcEEEEEEPS6_S8_S8_EET2_RT_T0_T1_S9_, symObjAddr: 0x9058, symBinAddr: 0x10000BC8C, symSize: 0xFC }
  - { offsetInCU: 0xBBAE, offset: 0x13E84, size: 0x8, addend: 0x0, symName: __ZNSt3__113__unwrap_iterB8ue170006IPNS_12basic_stringIcNS_11char_traitsIcEENS_9allocatorIcEEEENS_18__unwrap_iter_implIS7_Lb1EEELi0EEEDTclsrT0_8__unwrapclsr3stdE7declvalIT_EEEESB_, symObjAddr: 0x9154, symBinAddr: 0x10000BD88, symSize: 0x24 }
  - { offsetInCU: 0xBBF3, offset: 0x13EC9, size: 0x8, addend: 0x0, symName: __ZNSt3__113__rewrap_iterB8ue170006IPNS_12basic_stringIcNS_11char_traitsIcEENS_9allocatorIcEEEES7_NS_18__unwrap_iter_implIS7_Lb1EEEEET_SA_T0_, symObjAddr: 0x9178, symBinAddr: 0x10000BDAC, symSize: 0x50 }
  - { offsetInCU: 0xBC48, offset: 0x13F1E, size: 0x8, addend: 0x0, symName: __ZNSt3__19make_pairB8ue170006IPNS_12basic_stringIcNS_11char_traitsIcEENS_9allocatorIcEEEES7_EENS_4pairINS_18__unwrap_ref_decayIT_E4typeENS9_IT0_E4typeEEEOSA_OSD_, symObjAddr: 0x91C8, symBinAddr: 0x10000BDFC, symSize: 0x38 }
  - { offsetInCU: 0xBD44, offset: 0x1401A, size: 0x8, addend: 0x0, symName: __ZNSt3__122__make_exception_guardB8ue170006INS_29_AllocatorDestroyRangeReverseINS_9allocatorINS_12basic_stringIcNS_11char_traitsIcEENS2_IcEEEEEEPS7_EEEENS_28__exception_guard_exceptionsIT_EESC_, symObjAddr: 0x9270, symBinAddr: 0x10000BEA4, symSize: 0x4C }
  - { offsetInCU: 0xBD7A, offset: 0x14050, size: 0x8, addend: 0x0, symName: __ZNSt3__119__allocator_destroyB8ue170006INS_9allocatorINS_12basic_stringIcNS_11char_traitsIcEENS1_IcEEEEEENS_16reverse_iteratorIPS6_EESA_EEvRT_T0_T1_, symObjAddr: 0x94F8, symBinAddr: 0x10000C12C, symSize: 0x70 }
  - { offsetInCU: 0xBDDD, offset: 0x140B3, size: 0x8, addend: 0x0, symName: __ZNSt3__1neB8ue170006IPNS_12basic_stringIcNS_11char_traitsIcEENS_9allocatorIcEEEES7_EEbRKNS_16reverse_iteratorIT_EERKNS8_IT0_EE, symObjAddr: 0x959C, symBinAddr: 0x10000C1D0, symSize: 0x48 }
  - { offsetInCU: 0xBE29, offset: 0x140FF, size: 0x8, addend: 0x0, symName: __ZNSt3__112__to_addressB8ue170006INS_16reverse_iteratorIPNS_12basic_stringIcNS_11char_traitsIcEENS_9allocatorIcEEEEEEvEEu7__decayIDTclsr19__to_address_helperIT_EE6__callclsr3stdE7declvalIRKSA_EEEEESC_, symObjAddr: 0x95E4, symBinAddr: 0x10000C218, symSize: 0x24 }
  - { offsetInCU: 0xBEDE, offset: 0x141B4, size: 0x8, addend: 0x0, symName: __ZNSt3__123__dispatch_copy_or_moveB8ue170006INS_17_ClassicAlgPolicyENS_11__copy_loopIS1_EENS_14__copy_trivialEPNS_12basic_stringIcNS_11char_traitsIcEENS_9allocatorIcEEEESB_SB_EENS_4pairIT2_T4_EESD_T3_SE_, symObjAddr: 0x979C, symBinAddr: 0x10000C3D0, symSize: 0x44 }
  - { offsetInCU: 0xBF5C, offset: 0x14232, size: 0x8, addend: 0x0, symName: __ZNSt3__121__unwrap_and_dispatchB8ue170006INS_10__overloadINS_11__copy_loopINS_17_ClassicAlgPolicyEEENS_14__copy_trivialEEEPNS_12basic_stringIcNS_11char_traitsIcEENS_9allocatorIcEEEESD_SD_Li0EEENS_4pairIT0_T2_EESF_T1_SG_, symObjAddr: 0x97E0, symBinAddr: 0x10000C414, symSize: 0xB4 }
  - { offsetInCU: 0xC046, offset: 0x1431C, size: 0x8, addend: 0x0, symName: __ZNSt3__114__rewrap_rangeB8ue170006IPNS_12basic_stringIcNS_11char_traitsIcEENS_9allocatorIcEEEES7_EET_S8_T0_, symObjAddr: 0x991C, symBinAddr: 0x10000C550, symSize: 0x2C }
  - { offsetInCU: 0xC092, offset: 0x14368, size: 0x8, addend: 0x0, symName: __ZNSt3__119__allocate_at_leastB8ue170006INS_9allocatorINS_12basic_stringIcNS_11char_traitsIcEENS1_IcEEEEEEEENS_19__allocation_resultINS_16allocator_traitsIT_E7pointerEEERSA_m, symObjAddr: 0x9B4C, symBinAddr: 0x10000C780, symSize: 0x40 }
  - { offsetInCU: 0xC0D5, offset: 0x143AB, size: 0x8, addend: 0x0, symName: __ZNSt3__120__throw_length_errorB8ue170006EPKc, symObjAddr: 0x9CF0, symBinAddr: 0x10000C924, symSize: 0x64 }
  - { offsetInCU: 0xC100, offset: 0x143D6, size: 0x8, addend: 0x0, symName: __ZNSt3__13maxB8ue170006ImEERKT_S3_S3_, symObjAddr: 0x9E60, symBinAddr: 0x10000CA94, symSize: 0x2C }
  - { offsetInCU: 0xC143, offset: 0x14419, size: 0x8, addend: 0x0, symName: __ZNSt3__13maxB8ue170006ImNS_6__lessIvvEEEERKT_S5_S5_T0_, symObjAddr: 0x9E8C, symBinAddr: 0x10000CAC0, symSize: 0x54 }
  - { offsetInCU: 0xC19D, offset: 0x14473, size: 0x8, addend: 0x0, symName: __ZNSt3__110__distanceB8ue170006IPNS_12basic_stringIcNS_11char_traitsIcEENS_9allocatorIcEEEEEENS_15iterator_traitsIT_E15difference_typeES9_S9_NS_26random_access_iterator_tagE, symObjAddr: 0x9EE0, symBinAddr: 0x10000CB14, symSize: 0x28 }
  - { offsetInCU: 0xC226, offset: 0x144FC, size: 0x8, addend: 0x0, symName: __ZNSt3__142__uninitialized_allocator_move_if_noexceptB8ue170006INS_9allocatorINS_12basic_stringIcNS_11char_traitsIcEENS1_IcEEEEEENS_16reverse_iteratorIPS6_EESA_SA_EET2_RT_T0_T1_SB_, symObjAddr: 0xB220, symBinAddr: 0x10000DE54, symSize: 0x124 }
  - { offsetInCU: 0xC2C6, offset: 0x1459C, size: 0x8, addend: 0x0, symName: __ZNSt3__14swapB8ue170006IPNS_12basic_stringIcNS_11char_traitsIcEENS_9allocatorIcEEEEEEvRT_S9_, symObjAddr: 0xB344, symBinAddr: 0x10000DF78, symSize: 0x3C }
  - { offsetInCU: 0xC317, offset: 0x145ED, size: 0x8, addend: 0x0, symName: __ZNSt3__122__make_exception_guardB8ue170006INS_29_AllocatorDestroyRangeReverseINS_9allocatorINS_12basic_stringIcNS_11char_traitsIcEENS2_IcEEEEEENS_16reverse_iteratorIPS7_EEEEEENS_28__exception_guard_exceptionsIT_EESE_, symObjAddr: 0xB380, symBinAddr: 0x10000DFB4, symSize: 0x4C }
  - { offsetInCU: 0xC34D, offset: 0x14623, size: 0x8, addend: 0x0, symName: __ZNSt3__119__allocator_destroyB8ue170006INS_9allocatorINS_12basic_stringIcNS_11char_traitsIcEENS1_IcEEEEEENS_16reverse_iteratorINS8_IPS6_EEEESB_EEvRT_T0_T1_, symObjAddr: 0xB654, symBinAddr: 0x10000E288, symSize: 0x70 }
  - { offsetInCU: 0xC3B2, offset: 0x14688, size: 0x8, addend: 0x0, symName: __ZNSt3__1neB8ue170006INS_16reverse_iteratorIPNS_12basic_stringIcNS_11char_traitsIcEENS_9allocatorIcEEEEEES9_EEbRKNS1_IT_EERKNS1_IT0_EE, symObjAddr: 0xB700, symBinAddr: 0x10000E334, symSize: 0x60 }
  - { offsetInCU: 0xC3FE, offset: 0x146D4, size: 0x8, addend: 0x0, symName: __ZNSt3__112__to_addressB8ue170006INS_16reverse_iteratorINS1_IPNS_12basic_stringIcNS_11char_traitsIcEENS_9allocatorIcEEEEEEEEvEEu7__decayIDTclsr19__to_address_helperIT_EE6__callclsr3stdE7declvalIRKSB_EEEEESD_, symObjAddr: 0xB760, symBinAddr: 0x10000E394, symSize: 0x24 }
  - { offsetInCU: 0xC45F, offset: 0x14735, size: 0x8, addend: 0x0, symName: __ZNSt3__1eqB8ue170006IPNS_12basic_stringIcNS_11char_traitsIcEENS_9allocatorIcEEEEEEbRKNS_11__wrap_iterIT_EESC_, symObjAddr: 0xBB40, symBinAddr: 0x10000E774, symSize: 0x48 }
  - { offsetInCU: 0xC6F2, offset: 0x149C8, size: 0x8, addend: 0x0, symName: __ZSt28__throw_bad_array_new_lengthB8ue170006v, symObjAddr: 0x2838, symBinAddr: 0x100005678, symSize: 0x34 }
  - { offsetInCU: 0xD352, offset: 0x15628, size: 0x8, addend: 0x0, symName: __ZNSt3__16vectorINS_12basic_stringIcNS_11char_traitsIcEENS_9allocatorIcEEEENS4_IS6_EEE26__swap_out_circular_bufferERNS_14__split_bufferIS6_RS7_EE, symObjAddr: 0xAEAC, symBinAddr: 0x10000DAE0, symSize: 0x110 }
  - { offsetInCU: 0xF16A, offset: 0x17440, size: 0x8, addend: 0x0, symName: __Z11create_clubv, symObjAddr: 0x0, symBinAddr: 0x100002F44, symSize: 0x118 }
  - { offsetInCU: 0xF209, offset: 0x174DF, size: 0x8, addend: 0x0, symName: __ZN4clubC1Ev, symObjAddr: 0x118, symBinAddr: 0x10000305C, symSize: 0x2C }
  - { offsetInCU: 0xF234, offset: 0x1750A, size: 0x8, addend: 0x0, symName: __ZNSt3__13mapINS_12basic_stringIcNS_11char_traitsIcEENS_9allocatorIcEEEE4boatNS_4lessIS6_EENS4_INS_4pairIKS6_S7_EEEEEC1B8ue170006Ev, symObjAddr: 0x144, symBinAddr: 0x100003088, symSize: 0x2C }
  - { offsetInCU: 0xF25C, offset: 0x17532, size: 0x8, addend: 0x0, symName: __ZNSt3__13mapINS_12basic_stringIcNS_11char_traitsIcEENS_9allocatorIcEEEE6memberNS_4lessIS6_EENS4_INS_4pairIKS6_S7_EEEEEC1B8ue170006Ev, symObjAddr: 0x170, symBinAddr: 0x1000030B4, symSize: 0x2C }
  - { offsetInCU: 0xF284, offset: 0x1755A, size: 0x8, addend: 0x0, symName: __ZNSt3__13mapINS_12basic_stringIcNS_11char_traitsIcEENS_9allocatorIcEEEE4boatNS_4lessIS6_EENS4_INS_4pairIKS6_S7_EEEEEaSB8ue170006ERKSE_, symObjAddr: 0x19C, symBinAddr: 0x1000030E0, symSize: 0x94 }
  - { offsetInCU: 0xF2B7, offset: 0x1758D, size: 0x8, addend: 0x0, symName: __ZNSt3__13mapINS_12basic_stringIcNS_11char_traitsIcEENS_9allocatorIcEEEE6memberNS_4lessIS6_EENS4_INS_4pairIKS6_S7_EEEEEaSB8ue170006ERKSE_, symObjAddr: 0x230, symBinAddr: 0x100003174, symSize: 0x94 }
  - { offsetInCU: 0xF2EA, offset: 0x175C0, size: 0x8, addend: 0x0, symName: __ZNSt3__13mapINS_12basic_stringIcNS_11char_traitsIcEENS_9allocatorIcEEEE6memberNS_4lessIS6_EENS4_INS_4pairIKS6_S7_EEEEED1B8ue170006Ev, symObjAddr: 0x2C4, symBinAddr: 0x100003208, symSize: 0x2C }
  - { offsetInCU: 0xF312, offset: 0x175E8, size: 0x8, addend: 0x0, symName: __ZNSt3__13mapINS_12basic_stringIcNS_11char_traitsIcEENS_9allocatorIcEEEE4boatNS_4lessIS6_EENS4_INS_4pairIKS6_S7_EEEEED1B8ue170006Ev, symObjAddr: 0x2FC, symBinAddr: 0x100003234, symSize: 0x2C }
  - { offsetInCU: 0xF33A, offset: 0x17610, size: 0x8, addend: 0x0, symName: __Z12destroy_clubP4club, symObjAddr: 0x328, symBinAddr: 0x100003260, symSize: 0x70 }
  - { offsetInCU: 0xF363, offset: 0x17639, size: 0x8, addend: 0x0, symName: __ZN4clubD1Ev, symObjAddr: 0x398, symBinAddr: 0x1000032D0, symSize: 0x2C }
  - { offsetInCU: 0xF38E, offset: 0x17664, size: 0x8, addend: 0x0, symName: __Z8add_boatP4clubPKcj, symObjAddr: 0x3C4, symBinAddr: 0x1000032FC, symSize: 0x240 }
  - { offsetInCU: 0xF3E5, offset: 0x176BB, size: 0x8, addend: 0x0, symName: __ZNSt3__13mapINS_12basic_stringIcNS_11char_traitsIcEENS_9allocatorIcEEEE4boatNS_4lessIS6_EENS4_INS_4pairIKS6_S7_EEEEE4findB8ue170006ERSB_, symObjAddr: 0x634, symBinAddr: 0x10000356C, symSize: 0x40 }
  - { offsetInCU: 0xF41D, offset: 0x176F3, size: 0x8, addend: 0x0, symName: __ZNSt3__112basic_stringIcNS_11char_traitsIcEENS_9allocatorIcEEEC1B8ue170006ILi0EEEPKc, symObjAddr: 0x674, symBinAddr: 0x1000035AC, symSize: 0x34 }
  - { offsetInCU: 0xF45B, offset: 0x17731, size: 0x8, addend: 0x0, symName: __ZNSt3__13mapINS_12basic_stringIcNS_11char_traitsIcEENS_9allocatorIcEEEE4boatNS_4lessIS6_EENS4_INS_4pairIKS6_S7_EEEEE3endB8ue170006Ev, symObjAddr: 0x6A8, symBinAddr: 0x1000035E0, symSize: 0x38 }
  - { offsetInCU: 0xF47F, offset: 0x17755, size: 0x8, addend: 0x0, symName: __ZNKSt3__13mapINS_12basic_stringIcNS_11char_traitsIcEENS_9allocatorIcEEEE4boatNS_4lessIS6_EENS4_INS_4pairIKS6_S7_EEEEE4sizeB8ue170006Ev, symObjAddr: 0x6E0, symBinAddr: 0x100003618, symSize: 0x28 }
  - { offsetInCU: 0xF4A3, offset: 0x17779, size: 0x8, addend: 0x0, symName: __ZNKSt3__13mapINS_12basic_stringIcNS_11char_traitsIcEENS_9allocatorIcEEEE4boatNS_4lessIS6_EENS4_INS_4pairIKS6_S7_EEEEE8max_sizeB8ue170006Ev, symObjAddr: 0x708, symBinAddr: 0x100003640, symSize: 0x24 }
  - { offsetInCU: 0xF4C7, offset: 0x1779D, size: 0x8, addend: 0x0, symName: __ZNSt3__13mapINS_12basic_stringIcNS_11char_traitsIcEENS_9allocatorIcEEEE4boatNS_4lessIS6_EENS4_INS_4pairIKS6_S7_EEEEE6insertB8ue170006ERKSC_, symObjAddr: 0x72C, symBinAddr: 0x100003664, symSize: 0x4C }
  - { offsetInCU: 0xF51D, offset: 0x177F3, size: 0x8, addend: 0x0, symName: __ZNSt3__14pairIKNS_12basic_stringIcNS_11char_traitsIcEENS_9allocatorIcEEEE4boatEC1B8ue170006IPKcS8_EERKNS0_IT_T0_EE, symObjAddr: 0x7B0, symBinAddr: 0x1000036E8, symSize: 0x34 }
  - { offsetInCU: 0xF565, offset: 0x1783B, size: 0x8, addend: 0x0, symName: __ZNSt3__14pairIKNS_12basic_stringIcNS_11char_traitsIcEENS_9allocatorIcEEEE4boatED1Ev, symObjAddr: 0x7E4, symBinAddr: 0x10000371C, symSize: 0x2C }
  - { offsetInCU: 0xF590, offset: 0x17866, size: 0x8, addend: 0x0, symName: __Z10add_personP4clubPKc, symObjAddr: 0x810, symBinAddr: 0x100003748, symSize: 0x214 }
  - { offsetInCU: 0xF5D9, offset: 0x178AF, size: 0x8, addend: 0x0, symName: __ZNKSt3__13mapINS_12basic_stringIcNS_11char_traitsIcEENS_9allocatorIcEEEE6memberNS_4lessIS6_EENS4_INS_4pairIKS6_S7_EEEEE4sizeB8ue170006Ev, symObjAddr: 0xA24, symBinAddr: 0x10000395C, symSize: 0x28 }
  - { offsetInCU: 0xF5FD, offset: 0x178D3, size: 0x8, addend: 0x0, symName: __ZNKSt3__13mapINS_12basic_stringIcNS_11char_traitsIcEENS_9allocatorIcEEEE6memberNS_4lessIS6_EENS4_INS_4pairIKS6_S7_EEEEE8max_sizeB8ue170006Ev, symObjAddr: 0xA4C, symBinAddr: 0x100003984, symSize: 0x24 }
  - { offsetInCU: 0xF621, offset: 0x178F7, size: 0x8, addend: 0x0, symName: __ZNSt3__13mapINS_12basic_stringIcNS_11char_traitsIcEENS_9allocatorIcEEEE6memberNS_4lessIS6_EENS4_INS_4pairIKS6_S7_EEEEE4findB8ue170006ERSB_, symObjAddr: 0xAA0, symBinAddr: 0x1000039D8, symSize: 0x40 }
  - { offsetInCU: 0xF654, offset: 0x1792A, size: 0x8, addend: 0x0, symName: __ZNSt3__13mapINS_12basic_stringIcNS_11char_traitsIcEENS_9allocatorIcEEEE6memberNS_4lessIS6_EENS4_INS_4pairIKS6_S7_EEEEE3endB8ue170006Ev, symObjAddr: 0xAE0, symBinAddr: 0x100003A18, symSize: 0x38 }
  - { offsetInCU: 0xF678, offset: 0x1794E, size: 0x8, addend: 0x0, symName: __ZNSt3__13mapINS_12basic_stringIcNS_11char_traitsIcEENS_9allocatorIcEEEE6memberNS_4lessIS6_EENS4_INS_4pairIKS6_S7_EEEEE6insertB8ue170006ERKSC_, symObjAddr: 0xB18, symBinAddr: 0x100003A50, symSize: 0x4C }
  - { offsetInCU: 0xF6C4, offset: 0x1799A, size: 0x8, addend: 0x0, symName: __ZNSt3__14pairIKNS_12basic_stringIcNS_11char_traitsIcEENS_9allocatorIcEEEE6memberEC1B8ue170006IPKcS8_EERKNS0_IT_T0_EE, symObjAddr: 0xB9C, symBinAddr: 0x100003AD4, symSize: 0x34 }
  - { offsetInCU: 0xF70C, offset: 0x179E2, size: 0x8, addend: 0x0, symName: __ZNSt3__14pairIKNS_12basic_stringIcNS_11char_traitsIcEENS_9allocatorIcEEEE6memberED1Ev, symObjAddr: 0xBD0, symBinAddr: 0x100003B08, symSize: 0x2C }
  - { offsetInCU: 0xF737, offset: 0x17A0D, size: 0x8, addend: 0x0, symName: __Z16create_excursionP4club, symObjAddr: 0xBFC, symBinAddr: 0x100003B34, symSize: 0xD8 }
  - { offsetInCU: 0xF7DB, offset: 0x17AB1, size: 0x8, addend: 0x0, symName: __ZN9excursionC1Ev, symObjAddr: 0xCD4, symBinAddr: 0x100003C0C, symSize: 0x2C }
  - { offsetInCU: 0xF806, offset: 0x17ADC, size: 0x8, addend: 0x0, symName: __ZNSt3__16vectorINS_12basic_stringIcNS_11char_traitsIcEENS_9allocatorIcEEEENS4_IS6_EEEC1B8ue170006Ev, symObjAddr: 0xD00, symBinAddr: 0x100003C38, symSize: 0x2C }
  - { offsetInCU: 0xF82E, offset: 0x17B04, size: 0x8, addend: 0x0, symName: __ZNSt3__16vectorINS_12basic_stringIcNS_11char_traitsIcEENS_9allocatorIcEEEENS4_IS6_EEEaSB8ue170006ERKS8_, symObjAddr: 0xD2C, symBinAddr: 0x100003C64, symSize: 0x68 }
  - { offsetInCU: 0xF863, offset: 0x17B39, size: 0x8, addend: 0x0, symName: __ZNSt3__16vectorINS_12basic_stringIcNS_11char_traitsIcEENS_9allocatorIcEEEENS4_IS6_EEED1B8ue170006Ev, symObjAddr: 0xD94, symBinAddr: 0x100003CCC, symSize: 0x2C }
  - { offsetInCU: 0xF88B, offset: 0x17B61, size: 0x8, addend: 0x0, symName: __Z8use_boatP9excursionPKc, symObjAddr: 0xDC0, symBinAddr: 0x100003CF8, symSize: 0x264 }
  - { offsetInCU: 0xF8C5, offset: 0x17B9B, size: 0x8, addend: 0x0, symName: __ZNSt3__13mapINS_12basic_stringIcNS_11char_traitsIcEENS_9allocatorIcEEEE4boatNS_4lessIS6_EENS4_INS_4pairIKS6_S7_EEEEEixERSB_, symObjAddr: 0x1054, symBinAddr: 0x100003F8C, symSize: 0xC8 }
  - { offsetInCU: 0xF93C, offset: 0x17C12, size: 0x8, addend: 0x0, symName: __ZNSt3__112basic_stringIcNS_11char_traitsIcEENS_9allocatorIcEEEaSB8ue170006EPKc, symObjAddr: 0x111C, symBinAddr: 0x100004054, symSize: 0x2C }
  - { offsetInCU: 0xF96F, offset: 0x17C45, size: 0x8, addend: 0x0, symName: __Z8add_crewP9excursionPKc, symObjAddr: 0x1148, symBinAddr: 0x100004080, symSize: 0x3C0 }
  - { offsetInCU: 0xF9D5, offset: 0x17CAB, size: 0x8, addend: 0x0, symName: __ZNSt3__13mapINS_12basic_stringIcNS_11char_traitsIcEENS_9allocatorIcEEEE6memberNS_4lessIS6_EENS4_INS_4pairIKS6_S7_EEEEEixERSB_, symObjAddr: 0x1538, symBinAddr: 0x100004470, symSize: 0xC8 }
  - { offsetInCU: 0xFA4C, offset: 0x17D22, size: 0x8, addend: 0x0, symName: __ZNSt3__16vectorINS_12basic_stringIcNS_11char_traitsIcEENS_9allocatorIcEEEENS4_IS6_EEE9push_backB8ue170006EOS6_, symObjAddr: 0x1600, symBinAddr: 0x100004538, symSize: 0x6C }
  - { offsetInCU: 0xFA81, offset: 0x17D57, size: 0x8, addend: 0x0, symName: __Z15close_excursionP9excursionj, symObjAddr: 0x166C, symBinAddr: 0x1000045A4, symSize: 0x208 }
  - { offsetInCU: 0xFB0D, offset: 0x17DE3, size: 0x8, addend: 0x0, symName: __ZNKSt3__16vectorINS_12basic_stringIcNS_11char_traitsIcEENS_9allocatorIcEEEENS4_IS6_EEE5emptyB8ue170006Ev, symObjAddr: 0x1874, symBinAddr: 0x1000047AC, symSize: 0x28 }
  - { offsetInCU: 0xFB30, offset: 0x17E06, size: 0x8, addend: 0x0, symName: __ZNSt3__16vectorINS_12basic_stringIcNS_11char_traitsIcEENS_9allocatorIcEEEENS4_IS6_EEE5beginB8ue170006Ev, symObjAddr: 0x189C, symBinAddr: 0x1000047D4, symSize: 0x30 }
  - { offsetInCU: 0xFB56, offset: 0x17E2C, size: 0x8, addend: 0x0, symName: __ZNSt3__16vectorINS_12basic_stringIcNS_11char_traitsIcEENS_9allocatorIcEEEENS4_IS6_EEE3endB8ue170006Ev, symObjAddr: 0x18CC, symBinAddr: 0x100004804, symSize: 0x30 }
  - { offsetInCU: 0xFB7D, offset: 0x17E53, size: 0x8, addend: 0x0, symName: __ZNKSt3__111__wrap_iterIPNS_12basic_stringIcNS_11char_traitsIcEENS_9allocatorIcEEEEEdeB8ue170006Ev, symObjAddr: 0x1930, symBinAddr: 0x100004868, symSize: 0x18 }
  - { offsetInCU: 0xFBA1, offset: 0x17E77, size: 0x8, addend: 0x0, symName: __ZNSt3__111__wrap_iterIPNS_12basic_stringIcNS_11char_traitsIcEENS_9allocatorIcEEEEEppB8ue170006Ev, symObjAddr: 0x1948, symBinAddr: 0x100004880, symSize: 0x20 }
  - { offsetInCU: 0xFBC4, offset: 0x17E9A, size: 0x8, addend: 0x0, symName: __ZN9excursionD1Ev, symObjAddr: 0x1968, symBinAddr: 0x1000048A0, symSize: 0x2C }
  - { offsetInCU: 0xFBEF, offset: 0x17EC5, size: 0x8, addend: 0x0, symName: __Z16cancel_excursionP9excursion, symObjAddr: 0x1994, symBinAddr: 0x1000048CC, symSize: 0x120 }
  - { offsetInCU: 0xFC69, offset: 0x17F3F, size: 0x8, addend: 0x0, symName: __Z19get_crew_excursionsP4clubPKc, symObjAddr: 0x1AB4, symBinAddr: 0x1000049EC, symSize: 0x1B0 }
  - { offsetInCU: 0xFCB1, offset: 0x17F87, size: 0x8, addend: 0x0, symName: __ZNKSt3__112basic_stringIcNS_11char_traitsIcEENS_9allocatorIcEEE5emptyB8ue170006Ev, symObjAddr: 0x1C64, symBinAddr: 0x100004B9C, symSize: 0x30 }
  - { offsetInCU: 0xFCD5, offset: 0x17FAB, size: 0x8, addend: 0x0, symName: __Z19get_crew_kilometersP4clubPKc, symObjAddr: 0x1C94, symBinAddr: 0x100004BCC, symSize: 0x138 }
  - { offsetInCU: 0xFD0F, offset: 0x17FE5, size: 0x8, addend: 0x0, symName: __Z14boat_availableP4clubPKc, symObjAddr: 0x1DCC, symBinAddr: 0x100004D04, symSize: 0x160 }
  - { offsetInCU: 0xFD49, offset: 0x1801F, size: 0x8, addend: 0x0, symName: __Z19get_boat_excursionsP4clubPKc, symObjAddr: 0x1F2C, symBinAddr: 0x100004E64, symSize: 0x138 }
  - { offsetInCU: 0xFD83, offset: 0x18059, size: 0x8, addend: 0x0, symName: __Z19get_boat_kilometersP4clubPKc, symObjAddr: 0x2064, symBinAddr: 0x100004F9C, symSize: 0x138 }
  - { offsetInCU: 0xFDBD, offset: 0x18093, size: 0x8, addend: 0x0, symName: __ZN4clubC2Ev, symObjAddr: 0x219C, symBinAddr: 0x1000050D4, symSize: 0x70 }
  - { offsetInCU: 0xFDE8, offset: 0x180BE, size: 0x8, addend: 0x0, symName: __ZN4clubD2Ev, symObjAddr: 0x220C, symBinAddr: 0x100005144, symSize: 0x6C }
  - { offsetInCU: 0xFE13, offset: 0x180E9, size: 0x8, addend: 0x0, symName: __ZNSt3__14pairIKNS_12basic_stringIcNS_11char_traitsIcEENS_9allocatorIcEEEE4boatED2Ev, symObjAddr: 0x2278, symBinAddr: 0x1000051B0, symSize: 0x2C }
  - { offsetInCU: 0xFE3E, offset: 0x18114, size: 0x8, addend: 0x0, symName: __ZNSt3__14pairIKNS_12basic_stringIcNS_11char_traitsIcEENS_9allocatorIcEEEE6memberED2Ev, symObjAddr: 0x22A4, symBinAddr: 0x1000051DC, symSize: 0x2C }
  - { offsetInCU: 0xFE69, offset: 0x1813F, size: 0x8, addend: 0x0, symName: __ZN9excursionC2Ev, symObjAddr: 0x22D0, symBinAddr: 0x100005208, symSize: 0x70 }
  - { offsetInCU: 0xFE94, offset: 0x1816A, size: 0x8, addend: 0x0, symName: __ZNSt3__112basic_stringIcNS_11char_traitsIcEENS_9allocatorIcEEEC1B8ue170006Ev, symObjAddr: 0x2340, symBinAddr: 0x100005278, symSize: 0x2C }
  - { offsetInCU: 0xFEBC, offset: 0x18192, size: 0x8, addend: 0x0, symName: __ZNSt3__112basic_stringIcNS_11char_traitsIcEENS_9allocatorIcEEEC2B8ue170006Ev, symObjAddr: 0x236C, symBinAddr: 0x1000052A4, symSize: 0x3C }
  - { offsetInCU: 0xFEE9, offset: 0x181BF, size: 0x8, addend: 0x0, symName: __ZNSt3__112basic_stringIcNS_11char_traitsIcEENS_9allocatorIcEEE14__default_initB8ue170006Ev, symObjAddr: 0x23E4, symBinAddr: 0x1000052E0, symSize: 0xB0 }
  - { offsetInCU: 0xFF39, offset: 0x1820F, size: 0x8, addend: 0x0, symName: __ZNSt3__117__compressed_pairINS_12basic_stringIcNS_11char_traitsIcEENS_9allocatorIcEEE5__repES5_E5firstB8ue170006Ev, symObjAddr: 0x2550, symBinAddr: 0x100005390, symSize: 0x24 }
  - { offsetInCU: 0xFF5E, offset: 0x18234, size: 0x8, addend: 0x0, symName: __ZNSt3__112basic_stringIcNS_11char_traitsIcEENS_9allocatorIcEEE11__recommendB8ue170006Em, symObjAddr: 0x2580, symBinAddr: 0x1000053C0, symSize: 0x9C }
  - { offsetInCU: 0xFF90, offset: 0x18266, size: 0x8, addend: 0x0, symName: __ZNSt3__116allocator_traitsINS_9allocatorIcEEE8allocateB8ue170006ERS2_m, symObjAddr: 0x261C, symBinAddr: 0x10000545C, symSize: 0x2C }
  - { offsetInCU: 0xFFC1, offset: 0x18297, size: 0x8, addend: 0x0, symName: __ZNSt3__112basic_stringIcNS_11char_traitsIcEENS_9allocatorIcEEE7__allocB8ue170006Ev, symObjAddr: 0x2648, symBinAddr: 0x100005488, symSize: 0x24 }
  - { offsetInCU: 0xFFE6, offset: 0x182BC, size: 0x8, addend: 0x0, symName: __ZNSt3__112basic_stringIcNS_11char_traitsIcEENS_9allocatorIcEEE16__begin_lifetimeB8ue170006EPcm, symObjAddr: 0x266C, symBinAddr: 0x1000054AC, symSize: 0x14 }
  - { offsetInCU: 0x10018, offset: 0x182EE, size: 0x8, addend: 0x0, symName: __ZNSt3__112basic_stringIcNS_11char_traitsIcEENS_9allocatorIcEEE18__set_long_pointerB8ue170006EPc, symObjAddr: 0x2680, symBinAddr: 0x1000054C0, symSize: 0x38 }
  - { offsetInCU: 0x1004B, offset: 0x18321, size: 0x8, addend: 0x0, symName: __ZNSt3__112basic_stringIcNS_11char_traitsIcEENS_9allocatorIcEEE14__set_long_capB8ue170006Em, symObjAddr: 0x26B8, symBinAddr: 0x1000054F8, symSize: 0x70 }
  - { offsetInCU: 0x1007E, offset: 0x18354, size: 0x8, addend: 0x0, symName: __ZNSt3__112basic_stringIcNS_11char_traitsIcEENS_9allocatorIcEEE15__set_long_sizeB8ue170006Em, symObjAddr: 0x2728, symBinAddr: 0x100005568, symSize: 0x38 }
  - { offsetInCU: 0x100B2, offset: 0x18388, size: 0x8, addend: 0x0, symName: __ZNSt3__122__compressed_pair_elemINS_12basic_stringIcNS_11char_traitsIcEENS_9allocatorIcEEE5__repELi0ELb0EE5__getB8ue170006Ev, symObjAddr: 0x2760, symBinAddr: 0x1000055A0, symSize: 0x14 }
  - { offsetInCU: 0x100D6, offset: 0x183AC, size: 0x8, addend: 0x0, symName: __ZNSt3__112basic_stringIcNS_11char_traitsIcEENS_9allocatorIcEEE10__align_itB8ue170006ILm16EEEmm, symObjAddr: 0x2774, symBinAddr: 0x1000055B4, symSize: 0x1C }
  - { offsetInCU: 0x10103, offset: 0x183D9, size: 0x8, addend: 0x0, symName: __ZNSt3__19allocatorIcE8allocateB8ue170006Em, symObjAddr: 0x2790, symBinAddr: 0x1000055D0, symSize: 0x84 }
  - { offsetInCU: 0x10140, offset: 0x18416, size: 0x8, addend: 0x0, symName: __ZNSt3__116allocator_traitsINS_9allocatorIcEEE8max_sizeB8ue170006IS2_vEEmRKS2_, symObjAddr: 0x2814, symBinAddr: 0x100005654, symSize: 0x24 }
  - { offsetInCU: 0x1016E, offset: 0x18444, size: 0x8, addend: 0x0, symName: __ZNKSt3__19allocatorIcE8max_sizeB8ue170006Ev, symObjAddr: 0x2894, symBinAddr: 0x1000056D4, symSize: 0x14 }
  - { offsetInCU: 0x10191, offset: 0x18467, size: 0x8, addend: 0x0, symName: __ZNSt3__117__compressed_pairINS_12basic_stringIcNS_11char_traitsIcEENS_9allocatorIcEEE5__repES5_E6secondB8ue170006Ev, symObjAddr: 0x28CC, symBinAddr: 0x10000570C, symSize: 0x24 }
  - { offsetInCU: 0x101B6, offset: 0x1848C, size: 0x8, addend: 0x0, symName: __ZNSt3__122__compressed_pair_elemINS_9allocatorIcEELi1ELb1EE5__getB8ue170006Ev, symObjAddr: 0x28F0, symBinAddr: 0x100005730, symSize: 0x14 }
  - { offsetInCU: 0x101D9, offset: 0x184AF, size: 0x8, addend: 0x0, symName: __ZN9excursionD2Ev, symObjAddr: 0x2904, symBinAddr: 0x100005744, symSize: 0x6C }
  - { offsetInCU: 0x10204, offset: 0x184DA, size: 0x8, addend: 0x0, symName: __ZNSt3__13mapINS_12basic_stringIcNS_11char_traitsIcEENS_9allocatorIcEEEE4boatNS_4lessIS6_EENS4_INS_4pairIKS6_S7_EEEEEC2B8ue170006Ev, symObjAddr: 0x2970, symBinAddr: 0x1000057B0, symSize: 0x40 }
  - { offsetInCU: 0x1022C, offset: 0x18502, size: 0x8, addend: 0x0, symName: __ZNSt3__119__map_value_compareINS_12basic_stringIcNS_11char_traitsIcEENS_9allocatorIcEEEENS_12__value_typeIS6_4boatEENS_4lessIS6_EELb1EEC1B8ue170006ESB_, symObjAddr: 0x29B0, symBinAddr: 0x1000057F0, symSize: 0x2C }
  - { offsetInCU: 0x10264, offset: 0x1853A, size: 0x8, addend: 0x0, symName: __ZNSt3__16__treeINS_12__value_typeINS_12basic_stringIcNS_11char_traitsIcEENS_9allocatorIcEEEE4boatEENS_19__map_value_compareIS7_S9_NS_4lessIS7_EELb1EEENS5_IS9_EEEC1ERKSD_, symObjAddr: 0x29DC, symBinAddr: 0x10000581C, symSize: 0x34 }
  - { offsetInCU: 0x1029E, offset: 0x18574, size: 0x8, addend: 0x0, symName: __ZNSt3__119__map_value_compareINS_12basic_stringIcNS_11char_traitsIcEENS_9allocatorIcEEEENS_12__value_typeIS6_4boatEENS_4lessIS6_EELb1EEC2B8ue170006ESB_, symObjAddr: 0x2A10, symBinAddr: 0x100005850, symSize: 0x14 }
  - { offsetInCU: 0x102D5, offset: 0x185AB, size: 0x8, addend: 0x0, symName: __ZNSt3__16__treeINS_12__value_typeINS_12basic_stringIcNS_11char_traitsIcEENS_9allocatorIcEEEE4boatEENS_19__map_value_compareIS7_S9_NS_4lessIS7_EELb1EEENS5_IS9_EEEC2ERKSD_, symObjAddr: 0x2A24, symBinAddr: 0x100005864, symSize: 0x70 }
  - { offsetInCU: 0x1030E, offset: 0x185E4, size: 0x8, addend: 0x0, symName: __ZNSt3__117__compressed_pairINS_15__tree_end_nodeIPNS_16__tree_node_baseIPvEEEENS_9allocatorINS_11__tree_nodeINS_12__value_typeINS_12basic_stringIcNS_11char_traitsIcEENS7_IcEEEE4boatEES3_EEEEEC1B8ue170006ILb1EvEEv, symObjAddr: 0x2A94, symBinAddr: 0x1000058D4, symSize: 0x2C }
  - { offsetInCU: 0x10347, offset: 0x1861D, size: 0x8, addend: 0x0, symName: __ZNSt3__117__compressed_pairImNS_19__map_value_compareINS_12basic_stringIcNS_11char_traitsIcEENS_9allocatorIcEEEENS_12__value_typeIS7_4boatEENS_4lessIS7_EELb1EEEEC1B8ue170006IiRKSD_EEOT_OT0_, symObjAddr: 0x2AC0, symBinAddr: 0x100005900, symSize: 0x3C }
  - { offsetInCU: 0x1039D, offset: 0x18673, size: 0x8, addend: 0x0, symName: __ZNSt3__16__treeINS_12__value_typeINS_12basic_stringIcNS_11char_traitsIcEENS_9allocatorIcEEEE4boatEENS_19__map_value_compareIS7_S9_NS_4lessIS7_EELb1EEENS5_IS9_EEE10__end_nodeB8ue170006Ev, symObjAddr: 0x2AFC, symBinAddr: 0x10000593C, symSize: 0x2C }
  - { offsetInCU: 0x103C2, offset: 0x18698, size: 0x8, addend: 0x0, symName: __ZNSt3__16__treeINS_12__value_typeINS_12basic_stringIcNS_11char_traitsIcEENS_9allocatorIcEEEE4boatEENS_19__map_value_compareIS7_S9_NS_4lessIS7_EELb1EEENS5_IS9_EEE12__begin_nodeB8ue170006Ev, symObjAddr: 0x2B28, symBinAddr: 0x100005968, symSize: 0x14 }
  - { offsetInCU: 0x103E5, offset: 0x186BB, size: 0x8, addend: 0x0, symName: __ZNSt3__117__compressed_pairINS_15__tree_end_nodeIPNS_16__tree_node_baseIPvEEEENS_9allocatorINS_11__tree_nodeINS_12__value_typeINS_12basic_stringIcNS_11char_traitsIcEENS7_IcEEEE4boatEES3_EEEEEC2B8ue170006ILb1EvEEv, symObjAddr: 0x2B3C, symBinAddr: 0x10000597C, symSize: 0x34 }
  - { offsetInCU: 0x10419, offset: 0x186EF, size: 0x8, addend: 0x0, symName: __ZNSt3__122__compressed_pair_elemINS_15__tree_end_nodeIPNS_16__tree_node_baseIPvEEEELi0ELb0EEC2B8ue170006ENS_16__value_init_tagE, symObjAddr: 0x2B70, symBinAddr: 0x1000059B0, symSize: 0x2C }
  - { offsetInCU: 0x1044B, offset: 0x18721, size: 0x8, addend: 0x0, symName: __ZNSt3__122__compressed_pair_elemINS_9allocatorINS_11__tree_nodeINS_12__value_typeINS_12basic_stringIcNS_11char_traitsIcEENS1_IcEEEE4boatEEPvEEEELi1ELb1EEC2B8ue170006ENS_16__value_init_tagE, symObjAddr: 0x2B9C, symBinAddr: 0x1000059DC, symSize: 0x2C }
  - { offsetInCU: 0x1047D, offset: 0x18753, size: 0x8, addend: 0x0, symName: __ZNSt3__115__tree_end_nodeIPNS_16__tree_node_baseIPvEEEC1B8ue170006Ev, symObjAddr: 0x2BC8, symBinAddr: 0x100005A08, symSize: 0x2C }
  - { offsetInCU: 0x104A6, offset: 0x1877C, size: 0x8, addend: 0x0, symName: __ZNSt3__115__tree_end_nodeIPNS_16__tree_node_baseIPvEEEC2B8ue170006Ev, symObjAddr: 0x2BF4, symBinAddr: 0x100005A34, symSize: 0x18 }
  - { offsetInCU: 0x104CD, offset: 0x187A3, size: 0x8, addend: 0x0, symName: __ZNSt3__19allocatorINS_11__tree_nodeINS_12__value_typeINS_12basic_stringIcNS_11char_traitsIcEENS0_IcEEEE4boatEEPvEEEC2B8ue170006Ev, symObjAddr: 0x2C0C, symBinAddr: 0x100005A4C, symSize: 0x2C }
  - { offsetInCU: 0x104F6, offset: 0x187CC, size: 0x8, addend: 0x0, symName: __ZNSt3__116__non_trivial_ifILb1ENS_9allocatorINS_11__tree_nodeINS_12__value_typeINS_12basic_stringIcNS_11char_traitsIcEENS1_IcEEEE4boatEEPvEEEEEC2B8ue170006Ev, symObjAddr: 0x2C38, symBinAddr: 0x100005A78, symSize: 0x14 }
  - { offsetInCU: 0x1051D, offset: 0x187F3, size: 0x8, addend: 0x0, symName: __ZNSt3__117__compressed_pairImNS_19__map_value_compareINS_12basic_stringIcNS_11char_traitsIcEENS_9allocatorIcEEEENS_12__value_typeIS7_4boatEENS_4lessIS7_EELb1EEEEC2B8ue170006IiRKSD_EEOT_OT0_, symObjAddr: 0x2C4C, symBinAddr: 0x100005A8C, symSize: 0x44 }
  - { offsetInCU: 0x10574, offset: 0x1884A, size: 0x8, addend: 0x0, symName: __ZNSt3__122__compressed_pair_elemImLi0ELb0EEC2B8ue170006IivEEOT_, symObjAddr: 0x2C90, symBinAddr: 0x100005AD0, symSize: 0x24 }
  - { offsetInCU: 0x105B5, offset: 0x1888B, size: 0x8, addend: 0x0, symName: __ZNSt3__122__compressed_pair_elemINS_19__map_value_compareINS_12basic_stringIcNS_11char_traitsIcEENS_9allocatorIcEEEENS_12__value_typeIS7_4boatEENS_4lessIS7_EELb1EEELi1ELb1EEC2B8ue170006IRKSD_vEEOT_, symObjAddr: 0x2CB4, symBinAddr: 0x100005AF4, symSize: 0x18 }
  - { offsetInCU: 0x105F6, offset: 0x188CC, size: 0x8, addend: 0x0, symName: __ZNSt3__114pointer_traitsIPNS_15__tree_end_nodeIPNS_16__tree_node_baseIPvEEEEE10pointer_toB8ue170006ERS6_, symObjAddr: 0x2CCC, symBinAddr: 0x100005B0C, symSize: 0x14 }
  - { offsetInCU: 0x10618, offset: 0x188EE, size: 0x8, addend: 0x0, symName: __ZNSt3__117__compressed_pairINS_15__tree_end_nodeIPNS_16__tree_node_baseIPvEEEENS_9allocatorINS_11__tree_nodeINS_12__value_typeINS_12basic_stringIcNS_11char_traitsIcEENS7_IcEEEE4boatEES3_EEEEE5firstB8ue170006Ev, symObjAddr: 0x2CE0, symBinAddr: 0x100005B20, symSize: 0x24 }
  - { offsetInCU: 0x1063D, offset: 0x18913, size: 0x8, addend: 0x0, symName: __ZNSt3__122__compressed_pair_elemINS_15__tree_end_nodeIPNS_16__tree_node_baseIPvEEEELi0ELb0EE5__getB8ue170006Ev, symObjAddr: 0x2D04, symBinAddr: 0x100005B44, symSize: 0x14 }
  - { offsetInCU: 0x10660, offset: 0x18936, size: 0x8, addend: 0x0, symName: __ZNSt3__13mapINS_12basic_stringIcNS_11char_traitsIcEENS_9allocatorIcEEEE6memberNS_4lessIS6_EENS4_INS_4pairIKS6_S7_EEEEEC2B8ue170006Ev, symObjAddr: 0x2D18, symBinAddr: 0x100005B58, symSize: 0x40 }
  - { offsetInCU: 0x10688, offset: 0x1895E, size: 0x8, addend: 0x0, symName: __ZNSt3__119__map_value_compareINS_12basic_stringIcNS_11char_traitsIcEENS_9allocatorIcEEEENS_12__value_typeIS6_6memberEENS_4lessIS6_EELb1EEC1B8ue170006ESB_, symObjAddr: 0x2D58, symBinAddr: 0x100005B98, symSize: 0x2C }
  - { offsetInCU: 0x106C0, offset: 0x18996, size: 0x8, addend: 0x0, symName: __ZNSt3__16__treeINS_12__value_typeINS_12basic_stringIcNS_11char_traitsIcEENS_9allocatorIcEEEE6memberEENS_19__map_value_compareIS7_S9_NS_4lessIS7_EELb1EEENS5_IS9_EEEC1ERKSD_, symObjAddr: 0x2D84, symBinAddr: 0x100005BC4, symSize: 0x34 }
  - { offsetInCU: 0x106FA, offset: 0x189D0, size: 0x8, addend: 0x0, symName: __ZNSt3__119__map_value_compareINS_12basic_stringIcNS_11char_traitsIcEENS_9allocatorIcEEEENS_12__value_typeIS6_6memberEENS_4lessIS6_EELb1EEC2B8ue170006ESB_, symObjAddr: 0x2DB8, symBinAddr: 0x100005BF8, symSize: 0x14 }
  - { offsetInCU: 0x10731, offset: 0x18A07, size: 0x8, addend: 0x0, symName: __ZNSt3__16__treeINS_12__value_typeINS_12basic_stringIcNS_11char_traitsIcEENS_9allocatorIcEEEE6memberEENS_19__map_value_compareIS7_S9_NS_4lessIS7_EELb1EEENS5_IS9_EEEC2ERKSD_, symObjAddr: 0x2DCC, symBinAddr: 0x100005C0C, symSize: 0x70 }
  - { offsetInCU: 0x1076A, offset: 0x18A40, size: 0x8, addend: 0x0, symName: __ZNSt3__117__compressed_pairINS_15__tree_end_nodeIPNS_16__tree_node_baseIPvEEEENS_9allocatorINS_11__tree_nodeINS_12__value_typeINS_12basic_stringIcNS_11char_traitsIcEENS7_IcEEEE6memberEES3_EEEEEC1B8ue170006ILb1EvEEv, symObjAddr: 0x2E3C, symBinAddr: 0x100005C7C, symSize: 0x2C }
  - { offsetInCU: 0x1079E, offset: 0x18A74, size: 0x8, addend: 0x0, symName: __ZNSt3__117__compressed_pairImNS_19__map_value_compareINS_12basic_stringIcNS_11char_traitsIcEENS_9allocatorIcEEEENS_12__value_typeIS7_6memberEENS_4lessIS7_EELb1EEEEC1B8ue170006IiRKSD_EEOT_OT0_, symObjAddr: 0x2E68, symBinAddr: 0x100005CA8, symSize: 0x3C }
  - { offsetInCU: 0x107F4, offset: 0x18ACA, size: 0x8, addend: 0x0, symName: __ZNSt3__16__treeINS_12__value_typeINS_12basic_stringIcNS_11char_traitsIcEENS_9allocatorIcEEEE6memberEENS_19__map_value_compareIS7_S9_NS_4lessIS7_EELb1EEENS5_IS9_EEE10__end_nodeB8ue170006Ev, symObjAddr: 0x2EA4, symBinAddr: 0x100005CE4, symSize: 0x2C }
  - { offsetInCU: 0x10819, offset: 0x18AEF, size: 0x8, addend: 0x0, symName: __ZNSt3__16__treeINS_12__value_typeINS_12basic_stringIcNS_11char_traitsIcEENS_9allocatorIcEEEE6memberEENS_19__map_value_compareIS7_S9_NS_4lessIS7_EELb1EEENS5_IS9_EEE12__begin_nodeB8ue170006Ev, symObjAddr: 0x2ED0, symBinAddr: 0x100005D10, symSize: 0x14 }
  - { offsetInCU: 0x1083C, offset: 0x18B12, size: 0x8, addend: 0x0, symName: __ZNSt3__117__compressed_pairINS_15__tree_end_nodeIPNS_16__tree_node_baseIPvEEEENS_9allocatorINS_11__tree_nodeINS_12__value_typeINS_12basic_stringIcNS_11char_traitsIcEENS7_IcEEEE6memberEES3_EEEEEC2B8ue170006ILb1EvEEv, symObjAddr: 0x2EE4, symBinAddr: 0x100005D24, symSize: 0x34 }
  - { offsetInCU: 0x10870, offset: 0x18B46, size: 0x8, addend: 0x0, symName: __ZNSt3__122__compressed_pair_elemINS_9allocatorINS_11__tree_nodeINS_12__value_typeINS_12basic_stringIcNS_11char_traitsIcEENS1_IcEEEE6memberEEPvEEEELi1ELb1EEC2B8ue170006ENS_16__value_init_tagE, symObjAddr: 0x2F18, symBinAddr: 0x100005D58, symSize: 0x2C }
  - { offsetInCU: 0x108A2, offset: 0x18B78, size: 0x8, addend: 0x0, symName: __ZNSt3__19allocatorINS_11__tree_nodeINS_12__value_typeINS_12basic_stringIcNS_11char_traitsIcEENS0_IcEEEE6memberEEPvEEEC2B8ue170006Ev, symObjAddr: 0x2F44, symBinAddr: 0x100005D84, symSize: 0x2C }
  - { offsetInCU: 0x108CB, offset: 0x18BA1, size: 0x8, addend: 0x0, symName: __ZNSt3__116__non_trivial_ifILb1ENS_9allocatorINS_11__tree_nodeINS_12__value_typeINS_12basic_stringIcNS_11char_traitsIcEENS1_IcEEEE6memberEEPvEEEEEC2B8ue170006Ev, symObjAddr: 0x2F70, symBinAddr: 0x100005DB0, symSize: 0x14 }
  - { offsetInCU: 0x108F2, offset: 0x18BC8, size: 0x8, addend: 0x0, symName: __ZNSt3__117__compressed_pairImNS_19__map_value_compareINS_12basic_stringIcNS_11char_traitsIcEENS_9allocatorIcEEEENS_12__value_typeIS7_6memberEENS_4lessIS7_EELb1EEEEC2B8ue170006IiRKSD_EEOT_OT0_, symObjAddr: 0x2F84, symBinAddr: 0x100005DC4, symSize: 0x44 }
  - { offsetInCU: 0x10949, offset: 0x18C1F, size: 0x8, addend: 0x0, symName: __ZNSt3__122__compressed_pair_elemINS_19__map_value_compareINS_12basic_stringIcNS_11char_traitsIcEENS_9allocatorIcEEEENS_12__value_typeIS7_6memberEENS_4lessIS7_EELb1EEELi1ELb1EEC2B8ue170006IRKSD_vEEOT_, symObjAddr: 0x2FC8, symBinAddr: 0x100005E08, symSize: 0x18 }
  - { offsetInCU: 0x10989, offset: 0x18C5F, size: 0x8, addend: 0x0, symName: __ZNSt3__117__compressed_pairINS_15__tree_end_nodeIPNS_16__tree_node_baseIPvEEEENS_9allocatorINS_11__tree_nodeINS_12__value_typeINS_12basic_stringIcNS_11char_traitsIcEENS7_IcEEEE6memberEES3_EEEEE5firstB8ue170006Ev, symObjAddr: 0x2FE0, symBinAddr: 0x100005E20, symSize: 0x24 }
  - { offsetInCU: 0x109AD, offset: 0x18C83, size: 0x8, addend: 0x0, symName: __ZNSt3__13mapINS_12basic_stringIcNS_11char_traitsIcEENS_9allocatorIcEEEE4boatNS_4lessIS6_EENS4_INS_4pairIKS6_S7_EEEEED2B8ue170006Ev, symObjAddr: 0x3004, symBinAddr: 0x100005E44, symSize: 0x2C }
  - { offsetInCU: 0x109D6, offset: 0x18CAC, size: 0x8, addend: 0x0, symName: __ZNSt3__16__treeINS_12__value_typeINS_12basic_stringIcNS_11char_traitsIcEENS_9allocatorIcEEEE4boatEENS_19__map_value_compareIS7_S9_NS_4lessIS7_EELb1EEENS5_IS9_EEED1Ev, symObjAddr: 0x3030, symBinAddr: 0x100005E70, symSize: 0x2C }
  - { offsetInCU: 0x10A01, offset: 0x18CD7, size: 0x8, addend: 0x0, symName: __ZNSt3__16__treeINS_12__value_typeINS_12basic_stringIcNS_11char_traitsIcEENS_9allocatorIcEEEE4boatEENS_19__map_value_compareIS7_S9_NS_4lessIS7_EELb1EEENS5_IS9_EEED2Ev, symObjAddr: 0x305C, symBinAddr: 0x100005E9C, symSize: 0x38 }
  - { offsetInCU: 0x10A2B, offset: 0x18D01, size: 0x8, addend: 0x0, symName: __ZNSt3__16__treeINS_12__value_typeINS_12basic_stringIcNS_11char_traitsIcEENS_9allocatorIcEEEE4boatEENS_19__map_value_compareIS7_S9_NS_4lessIS7_EELb1EEENS5_IS9_EEE7destroyEPNS_11__tree_nodeIS9_PvEE, symObjAddr: 0x3094, symBinAddr: 0x100005ED4, symSize: 0xC0 }
  - { offsetInCU: 0x10A7D, offset: 0x18D53, size: 0x8, addend: 0x0, symName: __ZNKSt3__16__treeINS_12__value_typeINS_12basic_stringIcNS_11char_traitsIcEENS_9allocatorIcEEEE4boatEENS_19__map_value_compareIS7_S9_NS_4lessIS7_EELb1EEENS5_IS9_EEE6__rootB8ue170006Ev, symObjAddr: 0x3154, symBinAddr: 0x100005F94, symSize: 0x28 }
  - { offsetInCU: 0x10AA1, offset: 0x18D77, size: 0x8, addend: 0x0, symName: __ZNSt3__16__treeINS_12__value_typeINS_12basic_stringIcNS_11char_traitsIcEENS_9allocatorIcEEEE4boatEENS_19__map_value_compareIS7_S9_NS_4lessIS7_EELb1EEENS5_IS9_EEE12__node_allocB8ue170006Ev, symObjAddr: 0x317C, symBinAddr: 0x100005FBC, symSize: 0x28 }
  - { offsetInCU: 0x10AC6, offset: 0x18D9C, size: 0x8, addend: 0x0, symName: __ZNSt3__116allocator_traitsINS_9allocatorINS_11__tree_nodeINS_12__value_typeINS_12basic_stringIcNS_11char_traitsIcEENS1_IcEEEE4boatEEPvEEEEE7destroyB8ue170006INS_4pairIKS8_S9_EEvvEEvRSD_PT_, symObjAddr: 0x31A4, symBinAddr: 0x100005FE4, symSize: 0x28 }
  - { offsetInCU: 0x10B02, offset: 0x18DD8, size: 0x8, addend: 0x0, symName: __ZNSt3__122__tree_key_value_typesINS_12__value_typeINS_12basic_stringIcNS_11char_traitsIcEENS_9allocatorIcEEEE4boatEEE9__get_ptrB8ue170006ERS9_, symObjAddr: 0x31CC, symBinAddr: 0x10000600C, symSize: 0x24 }
  - { offsetInCU: 0x10B25, offset: 0x18DFB, size: 0x8, addend: 0x0, symName: __ZNSt3__116allocator_traitsINS_9allocatorINS_11__tree_nodeINS_12__value_typeINS_12basic_stringIcNS_11char_traitsIcEENS1_IcEEEE4boatEEPvEEEEE10deallocateB8ue170006ERSD_PSC_m, symObjAddr: 0x31F0, symBinAddr: 0x100006030, symSize: 0x34 }
  - { offsetInCU: 0x10B65, offset: 0x18E3B, size: 0x8, addend: 0x0, symName: __ZNSt3__117__compressed_pairINS_15__tree_end_nodeIPNS_16__tree_node_baseIPvEEEENS_9allocatorINS_11__tree_nodeINS_12__value_typeINS_12basic_stringIcNS_11char_traitsIcEENS7_IcEEEE4boatEES3_EEEEE6secondB8ue170006Ev, symObjAddr: 0x3224, symBinAddr: 0x100006064, symSize: 0x24 }
  - { offsetInCU: 0x10B8A, offset: 0x18E60, size: 0x8, addend: 0x0, symName: __ZNSt3__122__compressed_pair_elemINS_9allocatorINS_11__tree_nodeINS_12__value_typeINS_12basic_stringIcNS_11char_traitsIcEENS1_IcEEEE4boatEEPvEEEELi1ELb1EE5__getB8ue170006Ev, symObjAddr: 0x3248, symBinAddr: 0x100006088, symSize: 0x14 }
  - { offsetInCU: 0x10BAE, offset: 0x18E84, size: 0x8, addend: 0x0, symName: __ZNSt3__112__value_typeINS_12basic_stringIcNS_11char_traitsIcEENS_9allocatorIcEEEE4boatE11__get_valueB8ue170006Ev, symObjAddr: 0x325C, symBinAddr: 0x10000609C, symSize: 0x14 }
  - { offsetInCU: 0x10BD1, offset: 0x18EA7, size: 0x8, addend: 0x0, symName: __ZNSt3__19allocatorINS_11__tree_nodeINS_12__value_typeINS_12basic_stringIcNS_11char_traitsIcEENS0_IcEEEE4boatEEPvEEE10deallocateB8ue170006EPSB_m, symObjAddr: 0x3270, symBinAddr: 0x1000060B0, symSize: 0x74 }
  - { offsetInCU: 0x10C11, offset: 0x18EE7, size: 0x8, addend: 0x0, symName: __ZNKSt3__16__treeINS_12__value_typeINS_12basic_stringIcNS_11char_traitsIcEENS_9allocatorIcEEEE4boatEENS_19__map_value_compareIS7_S9_NS_4lessIS7_EELb1EEENS5_IS9_EEE10__end_nodeB8ue170006Ev, symObjAddr: 0x3360, symBinAddr: 0x1000061A0, symSize: 0x2C }
  - { offsetInCU: 0x10C35, offset: 0x18F0B, size: 0x8, addend: 0x0, symName: __ZNKSt3__117__compressed_pairINS_15__tree_end_nodeIPNS_16__tree_node_baseIPvEEEENS_9allocatorINS_11__tree_nodeINS_12__value_typeINS_12basic_stringIcNS_11char_traitsIcEENS7_IcEEEE4boatEES3_EEEEE5firstB8ue170006Ev, symObjAddr: 0x338C, symBinAddr: 0x1000061CC, symSize: 0x24 }
  - { offsetInCU: 0x10C5A, offset: 0x18F30, size: 0x8, addend: 0x0, symName: __ZNKSt3__122__compressed_pair_elemINS_15__tree_end_nodeIPNS_16__tree_node_baseIPvEEEELi0ELb0EE5__getB8ue170006Ev, symObjAddr: 0x33B0, symBinAddr: 0x1000061F0, symSize: 0x14 }
  - { offsetInCU: 0x10C7D, offset: 0x18F53, size: 0x8, addend: 0x0, symName: __ZNSt3__13mapINS_12basic_stringIcNS_11char_traitsIcEENS_9allocatorIcEEEE6memberNS_4lessIS6_EENS4_INS_4pairIKS6_S7_EEEEED2B8ue170006Ev, symObjAddr: 0x33C4, symBinAddr: 0x100006204, symSize: 0x2C }
  - { offsetInCU: 0x10CA6, offset: 0x18F7C, size: 0x8, addend: 0x0, symName: __ZNSt3__16__treeINS_12__value_typeINS_12basic_stringIcNS_11char_traitsIcEENS_9allocatorIcEEEE6memberEENS_19__map_value_compareIS7_S9_NS_4lessIS7_EELb1EEENS5_IS9_EEED1Ev, symObjAddr: 0x33F0, symBinAddr: 0x100006230, symSize: 0x2C }
  - { offsetInCU: 0x10CD1, offset: 0x18FA7, size: 0x8, addend: 0x0, symName: __ZNSt3__16__treeINS_12__value_typeINS_12basic_stringIcNS_11char_traitsIcEENS_9allocatorIcEEEE6memberEENS_19__map_value_compareIS7_S9_NS_4lessIS7_EELb1EEENS5_IS9_EEED2Ev, symObjAddr: 0x341C, symBinAddr: 0x10000625C, symSize: 0x38 }
  - { offsetInCU: 0x10CFB, offset: 0x18FD1, size: 0x8, addend: 0x0, symName: __ZNSt3__16__treeINS_12__value_typeINS_12basic_stringIcNS_11char_traitsIcEENS_9allocatorIcEEEE6memberEENS_19__map_value_compareIS7_S9_NS_4lessIS7_EELb1EEENS5_IS9_EEE7destroyEPNS_11__tree_nodeIS9_PvEE, symObjAddr: 0x3454, symBinAddr: 0x100006294, symSize: 0xC0 }
  - { offsetInCU: 0x10D4D, offset: 0x19023, size: 0x8, addend: 0x0, symName: __ZNKSt3__16__treeINS_12__value_typeINS_12basic_stringIcNS_11char_traitsIcEENS_9allocatorIcEEEE6memberEENS_19__map_value_compareIS7_S9_NS_4lessIS7_EELb1EEENS5_IS9_EEE6__rootB8ue170006Ev, symObjAddr: 0x3514, symBinAddr: 0x100006354, symSize: 0x28 }
  - { offsetInCU: 0x10D71, offset: 0x19047, size: 0x8, addend: 0x0, symName: __ZNSt3__16__treeINS_12__value_typeINS_12basic_stringIcNS_11char_traitsIcEENS_9allocatorIcEEEE6memberEENS_19__map_value_compareIS7_S9_NS_4lessIS7_EELb1EEENS5_IS9_EEE12__node_allocB8ue170006Ev, symObjAddr: 0x353C, symBinAddr: 0x10000637C, symSize: 0x28 }
  - { offsetInCU: 0x10D96, offset: 0x1906C, size: 0x8, addend: 0x0, symName: __ZNSt3__116allocator_traitsINS_9allocatorINS_11__tree_nodeINS_12__value_typeINS_12basic_stringIcNS_11char_traitsIcEENS1_IcEEEE6memberEEPvEEEEE7destroyB8ue170006INS_4pairIKS8_S9_EEvvEEvRSD_PT_, symObjAddr: 0x3564, symBinAddr: 0x1000063A4, symSize: 0x28 }
  - { offsetInCU: 0x10DD2, offset: 0x190A8, size: 0x8, addend: 0x0, symName: __ZNSt3__122__tree_key_value_typesINS_12__value_typeINS_12basic_stringIcNS_11char_traitsIcEENS_9allocatorIcEEEE6memberEEE9__get_ptrB8ue170006ERS9_, symObjAddr: 0x358C, symBinAddr: 0x1000063CC, symSize: 0x24 }
  - { offsetInCU: 0x10DF5, offset: 0x190CB, size: 0x8, addend: 0x0, symName: __ZNSt3__116allocator_traitsINS_9allocatorINS_11__tree_nodeINS_12__value_typeINS_12basic_stringIcNS_11char_traitsIcEENS1_IcEEEE6memberEEPvEEEEE10deallocateB8ue170006ERSD_PSC_m, symObjAddr: 0x35B0, symBinAddr: 0x1000063F0, symSize: 0x34 }
  - { offsetInCU: 0x10E35, offset: 0x1910B, size: 0x8, addend: 0x0, symName: __ZNSt3__117__compressed_pairINS_15__tree_end_nodeIPNS_16__tree_node_baseIPvEEEENS_9allocatorINS_11__tree_nodeINS_12__value_typeINS_12basic_stringIcNS_11char_traitsIcEENS7_IcEEEE6memberEES3_EEEEE6secondB8ue170006Ev, symObjAddr: 0x35E4, symBinAddr: 0x100006424, symSize: 0x24 }
  - { offsetInCU: 0x10E5A, offset: 0x19130, size: 0x8, addend: 0x0, symName: __ZNSt3__122__compressed_pair_elemINS_9allocatorINS_11__tree_nodeINS_12__value_typeINS_12basic_stringIcNS_11char_traitsIcEENS1_IcEEEE6memberEEPvEEEELi1ELb1EE5__getB8ue170006Ev, symObjAddr: 0x3608, symBinAddr: 0x100006448, symSize: 0x14 }
  - { offsetInCU: 0x10E7E, offset: 0x19154, size: 0x8, addend: 0x0, symName: __ZNSt3__112__value_typeINS_12basic_stringIcNS_11char_traitsIcEENS_9allocatorIcEEEE6memberE11__get_valueB8ue170006Ev, symObjAddr: 0x361C, symBinAddr: 0x10000645C, symSize: 0x14 }
  - { offsetInCU: 0x10EA1, offset: 0x19177, size: 0x8, addend: 0x0, symName: __ZNSt3__19allocatorINS_11__tree_nodeINS_12__value_typeINS_12basic_stringIcNS_11char_traitsIcEENS0_IcEEEE6memberEEPvEEE10deallocateB8ue170006EPSB_m, symObjAddr: 0x3630, symBinAddr: 0x100006470, symSize: 0x74 }
  - { offsetInCU: 0x10EE1, offset: 0x191B7, size: 0x8, addend: 0x0, symName: __ZNKSt3__16__treeINS_12__value_typeINS_12basic_stringIcNS_11char_traitsIcEENS_9allocatorIcEEEE6memberEENS_19__map_value_compareIS7_S9_NS_4lessIS7_EELb1EEENS5_IS9_EEE10__end_nodeB8ue170006Ev, symObjAddr: 0x36A4, symBinAddr: 0x1000064E4, symSize: 0x2C }
  - { offsetInCU: 0x10F05, offset: 0x191DB, size: 0x8, addend: 0x0, symName: __ZNKSt3__117__compressed_pairINS_15__tree_end_nodeIPNS_16__tree_node_baseIPvEEEENS_9allocatorINS_11__tree_nodeINS_12__value_typeINS_12basic_stringIcNS_11char_traitsIcEENS7_IcEEEE6memberEES3_EEEEE5firstB8ue170006Ev, symObjAddr: 0x36D0, symBinAddr: 0x100006510, symSize: 0x24 }
  - { offsetInCU: 0x10F29, offset: 0x191FF, size: 0x8, addend: 0x0, symName: __ZNSt3__16__treeINS_12__value_typeINS_12basic_stringIcNS_11char_traitsIcEENS_9allocatorIcEEEE4boatEENS_19__map_value_compareIS7_S9_NS_4lessIS7_EELb1EEENS5_IS9_EEE5clearEv, symObjAddr: 0x36F4, symBinAddr: 0x100006534, symSize: 0x74 }
  - { offsetInCU: 0x10F4F, offset: 0x19225, size: 0x8, addend: 0x0, symName: __ZNKSt3__16__treeINS_12__value_typeINS_12basic_stringIcNS_11char_traitsIcEENS_9allocatorIcEEEE4boatEENS_19__map_value_compareIS7_S9_NS_4lessIS7_EELb1EEENS5_IS9_EEE10value_compB8ue170006Ev, symObjAddr: 0x3768, symBinAddr: 0x1000065A8, symSize: 0x28 }
  - { offsetInCU: 0x10F73, offset: 0x19249, size: 0x8, addend: 0x0, symName: __ZNSt3__16__treeINS_12__value_typeINS_12basic_stringIcNS_11char_traitsIcEENS_9allocatorIcEEEE4boatEENS_19__map_value_compareIS7_S9_NS_4lessIS7_EELb1EEENS5_IS9_EEE10value_compB8ue170006Ev, symObjAddr: 0x3790, symBinAddr: 0x1000065D0, symSize: 0x28 }
  - { offsetInCU: 0x10F97, offset: 0x1926D, size: 0x8, addend: 0x0, symName: __ZNSt3__16__treeINS_12__value_typeINS_12basic_stringIcNS_11char_traitsIcEENS_9allocatorIcEEEE4boatEENS_19__map_value_compareIS7_S9_NS_4lessIS7_EELb1EEENS5_IS9_EEE19__copy_assign_allocB8ue170006ERKSF_, symObjAddr: 0x37B8, symBinAddr: 0x1000065F8, symSize: 0x2C }
  - { offsetInCU: 0x10FCA, offset: 0x192A0, size: 0x8, addend: 0x0, symName: __ZNSt3__13mapINS_12basic_stringIcNS_11char_traitsIcEENS_9allocatorIcEEEE4boatNS_4lessIS6_EENS4_INS_4pairIKS6_S7_EEEEE6insertB8ue170006INS_20__map_const_iteratorINS_21__tree_const_iteratorINS_12__value_typeIS6_S7_EEPNS_11__tree_nodeISJ_PvEElEEEEEEvT_SQ_, symObjAddr: 0x37E4, symBinAddr: 0x100006624, symSize: 0x8C }
  - { offsetInCU: 0x11032, offset: 0x19308, size: 0x8, addend: 0x0, symName: __ZNKSt3__13mapINS_12basic_stringIcNS_11char_traitsIcEENS_9allocatorIcEEEE4boatNS_4lessIS6_EENS4_INS_4pairIKS6_S7_EEEEE5beginB8ue170006Ev, symObjAddr: 0x3870, symBinAddr: 0x1000066B0, symSize: 0x38 }
  - { offsetInCU: 0x11056, offset: 0x1932C, size: 0x8, addend: 0x0, symName: __ZNKSt3__13mapINS_12basic_stringIcNS_11char_traitsIcEENS_9allocatorIcEEEE4boatNS_4lessIS6_EENS4_INS_4pairIKS6_S7_EEEEE3endB8ue170006Ev, symObjAddr: 0x38A8, symBinAddr: 0x1000066E8, symSize: 0x38 }
  - { offsetInCU: 0x1107A, offset: 0x19350, size: 0x8, addend: 0x0, symName: __ZNSt3__16__treeINS_12__value_typeINS_12basic_stringIcNS_11char_traitsIcEENS_9allocatorIcEEEE4boatEENS_19__map_value_compareIS7_S9_NS_4lessIS7_EELb1EEENS5_IS9_EEE4sizeB8ue170006Ev, symObjAddr: 0x38E0, symBinAddr: 0x100006720, symSize: 0x28 }
  - { offsetInCU: 0x1109E, offset: 0x19374, size: 0x8, addend: 0x0, symName: __ZNSt3__117__compressed_pairImNS_19__map_value_compareINS_12basic_stringIcNS_11char_traitsIcEENS_9allocatorIcEEEENS_12__value_typeIS7_4boatEENS_4lessIS7_EELb1EEEE5firstB8ue170006Ev, symObjAddr: 0x3908, symBinAddr: 0x100006748, symSize: 0x24 }
  - { offsetInCU: 0x110C3, offset: 0x19399, size: 0x8, addend: 0x0, symName: __ZNSt3__122__compressed_pair_elemImLi0ELb0EE5__getB8ue170006Ev, symObjAddr: 0x392C, symBinAddr: 0x10000676C, symSize: 0x14 }
  - { offsetInCU: 0x110E6, offset: 0x193BC, size: 0x8, addend: 0x0, symName: __ZNKSt3__117__compressed_pairImNS_19__map_value_compareINS_12basic_stringIcNS_11char_traitsIcEENS_9allocatorIcEEEENS_12__value_typeIS7_4boatEENS_4lessIS7_EELb1EEEE6secondB8ue170006Ev, symObjAddr: 0x3940, symBinAddr: 0x100006780, symSize: 0x24 }
  - { offsetInCU: 0x1110B, offset: 0x193E1, size: 0x8, addend: 0x0, symName: __ZNKSt3__122__compressed_pair_elemINS_19__map_value_compareINS_12basic_stringIcNS_11char_traitsIcEENS_9allocatorIcEEEENS_12__value_typeIS7_4boatEENS_4lessIS7_EELb1EEELi1ELb1EE5__getB8ue170006Ev, symObjAddr: 0x3964, symBinAddr: 0x1000067A4, symSize: 0x14 }
  - { offsetInCU: 0x1112E, offset: 0x19404, size: 0x8, addend: 0x0, symName: __ZNSt3__117__compressed_pairImNS_19__map_value_compareINS_12basic_stringIcNS_11char_traitsIcEENS_9allocatorIcEEEENS_12__value_typeIS7_4boatEENS_4lessIS7_EELb1EEEE6secondB8ue170006Ev, symObjAddr: 0x3978, symBinAddr: 0x1000067B8, symSize: 0x24 }
  - { offsetInCU: 0x11153, offset: 0x19429, size: 0x8, addend: 0x0, symName: __ZNSt3__122__compressed_pair_elemINS_19__map_value_compareINS_12basic_stringIcNS_11char_traitsIcEENS_9allocatorIcEEEENS_12__value_typeIS7_4boatEENS_4lessIS7_EELb1EEELi1ELb1EE5__getB8ue170006Ev, symObjAddr: 0x399C, symBinAddr: 0x1000067DC, symSize: 0x14 }
  - { offsetInCU: 0x11177, offset: 0x1944D, size: 0x8, addend: 0x0, symName: __ZNSt3__16__treeINS_12__value_typeINS_12basic_stringIcNS_11char_traitsIcEENS_9allocatorIcEEEE4boatEENS_19__map_value_compareIS7_S9_NS_4lessIS7_EELb1EEENS5_IS9_EEE19__copy_assign_allocB8ue170006ERKSF_NS_17integral_constantIbLb0EEE, symObjAddr: 0x39B0, symBinAddr: 0x1000067F0, symSize: 0x14 }
  - { offsetInCU: 0x111B2, offset: 0x19488, size: 0x8, addend: 0x0, symName: __ZNKSt3__13mapINS_12basic_stringIcNS_11char_traitsIcEENS_9allocatorIcEEEE4boatNS_4lessIS6_EENS4_INS_4pairIKS6_S7_EEEEE4cendB8ue170006Ev, symObjAddr: 0x39C4, symBinAddr: 0x100006804, symSize: 0x2C }
  - { offsetInCU: 0x111D6, offset: 0x194AC, size: 0x8, addend: 0x0, symName: __ZNSt3__13mapINS_12basic_stringIcNS_11char_traitsIcEENS_9allocatorIcEEEE4boatNS_4lessIS6_EENS4_INS_4pairIKS6_S7_EEEEE6insertB8ue170006ENS_20__map_const_iteratorINS_21__tree_const_iteratorINS_12__value_typeIS6_S7_EEPNS_11__tree_nodeISI_PvEElEEEERKSC_, symObjAddr: 0x3A20, symBinAddr: 0x100006860, symSize: 0x50 }
  - { offsetInCU: 0x11218, offset: 0x194EE, size: 0x8, addend: 0x0, symName: __ZNSt3__120__map_const_iteratorINS_21__tree_const_iteratorINS_12__value_typeINS_12basic_stringIcNS_11char_traitsIcEENS_9allocatorIcEEEE4boatEEPNS_11__tree_nodeISA_PvEElEEEC1B8ue170006ESF_, symObjAddr: 0x3A70, symBinAddr: 0x1000068B0, symSize: 0x34 }
  - { offsetInCU: 0x1124F, offset: 0x19525, size: 0x8, addend: 0x0, symName: __ZNKSt3__120__map_const_iteratorINS_21__tree_const_iteratorINS_12__value_typeINS_12basic_stringIcNS_11char_traitsIcEENS_9allocatorIcEEEE4boatEEPNS_11__tree_nodeISA_PvEElEEEdeB8ue170006Ev, symObjAddr: 0x3AA4, symBinAddr: 0x1000068E4, symSize: 0x28 }
  - { offsetInCU: 0x11273, offset: 0x19549, size: 0x8, addend: 0x0, symName: __ZNSt3__120__map_const_iteratorINS_21__tree_const_iteratorINS_12__value_typeINS_12basic_stringIcNS_11char_traitsIcEENS_9allocatorIcEEEE4boatEEPNS_11__tree_nodeISA_PvEElEEEppB8ue170006Ev, symObjAddr: 0x3ACC, symBinAddr: 0x10000690C, symSize: 0x2C }
  - { offsetInCU: 0x11297, offset: 0x1956D, size: 0x8, addend: 0x0, symName: __ZNSt3__16__treeINS_12__value_typeINS_12basic_stringIcNS_11char_traitsIcEENS_9allocatorIcEEEE4boatEENS_19__map_value_compareIS7_S9_NS_4lessIS7_EELb1EEENS5_IS9_EEE15__insert_uniqueB8ue170006ENS_21__tree_const_iteratorIS9_PNS_11__tree_nodeIS9_PvEElEERKNS_4pairIKS7_S8_EE, symObjAddr: 0x3B5C, symBinAddr: 0x10000699C, symSize: 0x64 }
  - { offsetInCU: 0x112D9, offset: 0x195AF, size: 0x8, addend: 0x0, symName: __ZNSt3__114__map_iteratorINS_15__tree_iteratorINS_12__value_typeINS_12basic_stringIcNS_11char_traitsIcEENS_9allocatorIcEEEE4boatEEPNS_11__tree_nodeISA_PvEElEEEC1B8ue170006ESF_, symObjAddr: 0x3BC0, symBinAddr: 0x100006A00, symSize: 0x34 }
  - { offsetInCU: 0x11310, offset: 0x195E6, size: 0x8, addend: 0x0, symName: __ZNSt3__16__treeINS_12__value_typeINS_12basic_stringIcNS_11char_traitsIcEENS_9allocatorIcEEEE4boatEENS_19__map_value_compareIS7_S9_NS_4lessIS7_EELb1EEENS5_IS9_EEE30__emplace_hint_unique_key_argsIS7_JRKNS_4pairIKS7_S8_EEEEENSH_INS_15__tree_iteratorIS9_PNS_11__tree_nodeIS9_PvEElEEbEENS_21__tree_const_iteratorIS9_SQ_lEERKT_DpOT0_, symObjAddr: 0x3BF4, symBinAddr: 0x100006A34, symSize: 0x104 }
  - { offsetInCU: 0x113DD, offset: 0x196B3, size: 0x8, addend: 0x0, symName: __ZNSt3__122__tree_key_value_typesINS_12__value_typeINS_12basic_stringIcNS_11char_traitsIcEENS_9allocatorIcEEEE4boatEEE9__get_keyB8ue170006IKNS_4pairIKS7_S8_EEEENS_9enable_ifIXsr17__is_same_uncvrefIT_SE_EE5valueERSD_E4typeERSH_, symObjAddr: 0x3CF8, symBinAddr: 0x100006B38, symSize: 0x14 }
  - { offsetInCU: 0x11409, offset: 0x196DF, size: 0x8, addend: 0x0, symName: __ZNSt3__16__treeINS_12__value_typeINS_12basic_stringIcNS_11char_traitsIcEENS_9allocatorIcEEEE4boatEENS_19__map_value_compareIS7_S9_NS_4lessIS7_EELb1EEENS5_IS9_EEE12__find_equalIS7_EERPNS_16__tree_node_baseIPvEENS_21__tree_const_iteratorIS9_PNS_11__tree_nodeIS9_SI_EElEERPNS_15__tree_end_nodeISK_EESL_RKT_, symObjAddr: 0x3D0C, symBinAddr: 0x100006B4C, symSize: 0x304 }
  - { offsetInCU: 0x114B0, offset: 0x19786, size: 0x8, addend: 0x0, symName: __ZNSt3__16__treeINS_12__value_typeINS_12basic_stringIcNS_11char_traitsIcEENS_9allocatorIcEEEE4boatEENS_19__map_value_compareIS7_S9_NS_4lessIS7_EELb1EEENS5_IS9_EEE16__construct_nodeIJRKNS_4pairIKS7_S8_EEEEENS_10unique_ptrINS_11__tree_nodeIS9_PvEENS_22__tree_node_destructorINS5_ISP_EEEEEEDpOT_, symObjAddr: 0x4010, symBinAddr: 0x100006E50, symSize: 0x118 }
  - { offsetInCU: 0x11511, offset: 0x197E7, size: 0x8, addend: 0x0, symName: __ZNSt3__16__treeINS_12__value_typeINS_12basic_stringIcNS_11char_traitsIcEENS_9allocatorIcEEEE4boatEENS_19__map_value_compareIS7_S9_NS_4lessIS7_EELb1EEENS5_IS9_EEE16__insert_node_atEPNS_15__tree_end_nodeIPNS_16__tree_node_baseIPvEEEERSK_SK_, symObjAddr: 0x4128, symBinAddr: 0x100006F68, symSize: 0xCC }
  - { offsetInCU: 0x11564, offset: 0x1983A, size: 0x8, addend: 0x0, symName: __ZNKSt3__110unique_ptrINS_11__tree_nodeINS_12__value_typeINS_12basic_stringIcNS_11char_traitsIcEENS_9allocatorIcEEEE4boatEEPvEENS_22__tree_node_destructorINS6_ISC_EEEEE3getB8ue170006Ev, symObjAddr: 0x41F4, symBinAddr: 0x100007034, symSize: 0x28 }
  - { offsetInCU: 0x11588, offset: 0x1985E, size: 0x8, addend: 0x0, symName: __ZNSt3__110unique_ptrINS_11__tree_nodeINS_12__value_typeINS_12basic_stringIcNS_11char_traitsIcEENS_9allocatorIcEEEE4boatEEPvEENS_22__tree_node_destructorINS6_ISC_EEEEE7releaseB8ue170006Ev, symObjAddr: 0x421C, symBinAddr: 0x10000705C, symSize: 0x44 }
  - { offsetInCU: 0x115BB, offset: 0x19891, size: 0x8, addend: 0x0, symName: __ZNSt3__110unique_ptrINS_11__tree_nodeINS_12__value_typeINS_12basic_stringIcNS_11char_traitsIcEENS_9allocatorIcEEEE4boatEEPvEENS_22__tree_node_destructorINS6_ISC_EEEEED1B8ue170006Ev, symObjAddr: 0x4260, symBinAddr: 0x1000070A0, symSize: 0x2C }
  - { offsetInCU: 0x115E3, offset: 0x198B9, size: 0x8, addend: 0x0, symName: __ZNSt3__115__tree_iteratorINS_12__value_typeINS_12basic_stringIcNS_11char_traitsIcEENS_9allocatorIcEEEE4boatEEPNS_11__tree_nodeIS9_PvEElEC1B8ue170006ESD_, symObjAddr: 0x428C, symBinAddr: 0x1000070CC, symSize: 0x34 }
  - { offsetInCU: 0x1161A, offset: 0x198F0, size: 0x8, addend: 0x0, symName: __ZNSt3__14pairINS_15__tree_iteratorINS_12__value_typeINS_12basic_stringIcNS_11char_traitsIcEENS_9allocatorIcEEEE4boatEEPNS_11__tree_nodeISA_PvEElEEbEC1B8ue170006ERKSF_RKb, symObjAddr: 0x42C0, symBinAddr: 0x100007100, symSize: 0x3C }
  - { offsetInCU: 0x1165E, offset: 0x19934, size: 0x8, addend: 0x0, symName: __ZNSt3__16__treeINS_12__value_typeINS_12basic_stringIcNS_11char_traitsIcEENS_9allocatorIcEEEE4boatEENS_19__map_value_compareIS7_S9_NS_4lessIS7_EELb1EEENS5_IS9_EEE3endB8ue170006Ev, symObjAddr: 0x42FC, symBinAddr: 0x10000713C, symSize: 0x34 }
  - { offsetInCU: 0x11682, offset: 0x19958, size: 0x8, addend: 0x0, symName: __ZNSt3__121__tree_const_iteratorINS_12__value_typeINS_12basic_stringIcNS_11char_traitsIcEENS_9allocatorIcEEEE4boatEEPNS_11__tree_nodeIS9_PvEElEC1B8ue170006ENS_15__tree_iteratorIS9_SD_lEE, symObjAddr: 0x4330, symBinAddr: 0x100007170, symSize: 0x34 }
  - { offsetInCU: 0x116B9, offset: 0x1998F, size: 0x8, addend: 0x0, symName: __ZNKSt3__119__map_value_compareINS_12basic_stringIcNS_11char_traitsIcEENS_9allocatorIcEEEENS_12__value_typeIS6_4boatEENS_4lessIS6_EELb1EEclB8ue170006ERKS6_RKS9_, symObjAddr: 0x4364, symBinAddr: 0x1000071A4, symSize: 0x50 }
  - { offsetInCU: 0x116FB, offset: 0x199D1, size: 0x8, addend: 0x0, symName: __ZNKSt3__121__tree_const_iteratorINS_12__value_typeINS_12basic_stringIcNS_11char_traitsIcEENS_9allocatorIcEEEE4boatEEPNS_11__tree_nodeIS9_PvEElEdeB8ue170006Ev, symObjAddr: 0x43B4, symBinAddr: 0x1000071F4, symSize: 0x28 }
  - { offsetInCU: 0x1171F, offset: 0x199F5, size: 0x8, addend: 0x0, symName: __ZNSt3__16__treeINS_12__value_typeINS_12basic_stringIcNS_11char_traitsIcEENS_9allocatorIcEEEE4boatEENS_19__map_value_compareIS7_S9_NS_4lessIS7_EELb1EEENS5_IS9_EEE5beginB8ue170006Ev, symObjAddr: 0x43DC, symBinAddr: 0x10000721C, symSize: 0x34 }
  - { offsetInCU: 0x11743, offset: 0x19A19, size: 0x8, addend: 0x0, symName: __ZNKSt3__119__map_value_compareINS_12basic_stringIcNS_11char_traitsIcEENS_9allocatorIcEEEENS_12__value_typeIS6_4boatEENS_4lessIS6_EELb1EEclB8ue170006ERKS9_RKS6_, symObjAddr: 0x4410, symBinAddr: 0x100007250, symSize: 0x48 }
  - { offsetInCU: 0x11785, offset: 0x19A5B, size: 0x8, addend: 0x0, symName: __ZNSt3__121__tree_const_iteratorINS_12__value_typeINS_12basic_stringIcNS_11char_traitsIcEENS_9allocatorIcEEEE4boatEEPNS_11__tree_nodeIS9_PvEElEmmB8ue170006Ev, symObjAddr: 0x4458, symBinAddr: 0x100007298, symSize: 0x38 }
  - { offsetInCU: 0x117A9, offset: 0x19A7F, size: 0x8, addend: 0x0, symName: __ZNSt3__16__treeINS_12__value_typeINS_12basic_stringIcNS_11char_traitsIcEENS_9allocatorIcEEEE4boatEENS_19__map_value_compareIS7_S9_NS_4lessIS7_EELb1EEENS5_IS9_EEE12__find_equalIS7_EERPNS_16__tree_node_baseIPvEERPNS_15__tree_end_nodeISK_EERKT_, symObjAddr: 0x4490, symBinAddr: 0x1000072D0, symSize: 0x184 }
  - { offsetInCU: 0x11815, offset: 0x19AEB, size: 0x8, addend: 0x0, symName: __ZNKSt3__121__tree_const_iteratorINS_12__value_typeINS_12basic_stringIcNS_11char_traitsIcEENS_9allocatorIcEEEE4boatEEPNS_11__tree_nodeIS9_PvEElE8__get_npB8ue170006Ev, symObjAddr: 0x4650, symBinAddr: 0x100007490, symSize: 0x18 }
  - { offsetInCU: 0x11838, offset: 0x19B0E, size: 0x8, addend: 0x0, symName: __ZNSt3__115__tree_iteratorINS_12__value_typeINS_12basic_stringIcNS_11char_traitsIcEENS_9allocatorIcEEEE4boatEEPNS_11__tree_nodeIS9_PvEElEC1B8ue170006EPNS_15__tree_end_nodeIPNS_16__tree_node_baseISB_EEEE, symObjAddr: 0x4668, symBinAddr: 0x1000074A8, symSize: 0x34 }
  - { offsetInCU: 0x11870, offset: 0x19B46, size: 0x8, addend: 0x0, symName: __ZNSt3__115__tree_iteratorINS_12__value_typeINS_12basic_stringIcNS_11char_traitsIcEENS_9allocatorIcEEEE4boatEEPNS_11__tree_nodeIS9_PvEElEC2B8ue170006EPNS_15__tree_end_nodeIPNS_16__tree_node_baseISB_EEEE, symObjAddr: 0x469C, symBinAddr: 0x1000074DC, symSize: 0x20 }
  - { offsetInCU: 0x118A7, offset: 0x19B7D, size: 0x8, addend: 0x0, symName: __ZNSt3__121__tree_const_iteratorINS_12__value_typeINS_12basic_stringIcNS_11char_traitsIcEENS_9allocatorIcEEEE4boatEEPNS_11__tree_nodeIS9_PvEElEC2B8ue170006ENS_15__tree_iteratorIS9_SD_lEE, symObjAddr: 0x46BC, symBinAddr: 0x1000074FC, symSize: 0x20 }
  - { offsetInCU: 0x118DD, offset: 0x19BB3, size: 0x8, addend: 0x0, symName: __ZNKSt3__14lessINS_12basic_stringIcNS_11char_traitsIcEENS_9allocatorIcEEEEEclB8ue170006ERKS6_S9_, symObjAddr: 0x46DC, symBinAddr: 0x10000751C, symSize: 0x34 }
  - { offsetInCU: 0x11920, offset: 0x19BF6, size: 0x8, addend: 0x0, symName: __ZNKSt3__112__value_typeINS_12basic_stringIcNS_11char_traitsIcEENS_9allocatorIcEEEE4boatE11__get_valueB8ue170006Ev, symObjAddr: 0x4710, symBinAddr: 0x100007550, symSize: 0x14 }
  - { offsetInCU: 0x11943, offset: 0x19C19, size: 0x8, addend: 0x0, symName: __ZNKSt3__112basic_stringIcNS_11char_traitsIcEENS_9allocatorIcEEE7compareB8ue170006ERKS5_, symObjAddr: 0x475C, symBinAddr: 0x10000759C, symSize: 0x4C }
  - { offsetInCU: 0x11978, offset: 0x19C4E, size: 0x8, addend: 0x0, symName: __ZNKSt3__112basic_stringIcNS_11char_traitsIcEENS_9allocatorIcEEE7compareINS_17basic_string_viewIcS2_EELi0EEEiRKT_, symObjAddr: 0x47A8, symBinAddr: 0x1000075E8, symSize: 0x140 }
  - { offsetInCU: 0x119FA, offset: 0x19CD0, size: 0x8, addend: 0x0, symName: __ZNKSt3__112basic_stringIcNS_11char_traitsIcEENS_9allocatorIcEEEcvNS_17basic_string_viewIcS2_EEB8ue170006Ev, symObjAddr: 0x48E8, symBinAddr: 0x100007728, symSize: 0x50 }
  - { offsetInCU: 0x11A1E, offset: 0x19CF4, size: 0x8, addend: 0x0, symName: __ZNKSt3__112basic_stringIcNS_11char_traitsIcEENS_9allocatorIcEEE4sizeB8ue170006Ev, symObjAddr: 0x4938, symBinAddr: 0x100007778, symSize: 0x54 }
  - { offsetInCU: 0x11A43, offset: 0x19D19, size: 0x8, addend: 0x0, symName: __ZNKSt3__117basic_string_viewIcNS_11char_traitsIcEEE4sizeB8ue170006Ev, symObjAddr: 0x498C, symBinAddr: 0x1000077CC, symSize: 0x18 }
  - { offsetInCU: 0x11A67, offset: 0x19D3D, size: 0x8, addend: 0x0, symName: __ZNSt3__111char_traitsIcE7compareB8ue170006EPKcS3_m, symObjAddr: 0x49A4, symBinAddr: 0x1000077E4, symSize: 0x64 }
  - { offsetInCU: 0x11AA5, offset: 0x19D7B, size: 0x8, addend: 0x0, symName: __ZNKSt3__117basic_string_viewIcNS_11char_traitsIcEEE4dataB8ue170006Ev, symObjAddr: 0x4A30, symBinAddr: 0x100007848, symSize: 0x18 }
  - { offsetInCU: 0x11AC8, offset: 0x19D9E, size: 0x8, addend: 0x0, symName: __ZNKSt3__112basic_stringIcNS_11char_traitsIcEENS_9allocatorIcEEE15__get_long_sizeB8ue170006Ev, symObjAddr: 0x4AE8, symBinAddr: 0x10000788C, symSize: 0x28 }
  - { offsetInCU: 0x11AEC, offset: 0x19DC2, size: 0x8, addend: 0x0, symName: __ZNKSt3__112basic_stringIcNS_11char_traitsIcEENS_9allocatorIcEEE16__get_short_sizeB8ue170006Ev, symObjAddr: 0x4B10, symBinAddr: 0x1000078B4, symSize: 0x34 }
  - { offsetInCU: 0x11B1B, offset: 0x19DF1, size: 0x8, addend: 0x0, symName: __ZNKSt3__16__lessIvvEclB8ue170006ImmEEbRKT_RKT0_, symObjAddr: 0x4C9C, symBinAddr: 0x10000793C, symSize: 0x34 }
  - { offsetInCU: 0x11B6C, offset: 0x19E42, size: 0x8, addend: 0x0, symName: __ZNSt3__117basic_string_viewIcNS_11char_traitsIcEEEC1B8ue170006EPKcm, symObjAddr: 0x4CD0, symBinAddr: 0x100007970, symSize: 0x3C }
  - { offsetInCU: 0x11BB3, offset: 0x19E89, size: 0x8, addend: 0x0, symName: __ZNSt3__117basic_string_viewIcNS_11char_traitsIcEEEC2B8ue170006EPKcm, symObjAddr: 0x4D0C, symBinAddr: 0x1000079AC, symSize: 0x2C }
  - { offsetInCU: 0x11BF9, offset: 0x19ECF, size: 0x8, addend: 0x0, symName: __ZNKSt3__116__tree_node_baseIPvE15__parent_unsafeB8ue170006Ev, symObjAddr: 0x4E5C, symBinAddr: 0x100007AFC, symSize: 0x18 }
  - { offsetInCU: 0x11C1C, offset: 0x19EF2, size: 0x8, addend: 0x0, symName: __ZNKSt3__16__treeINS_12__value_typeINS_12basic_stringIcNS_11char_traitsIcEENS_9allocatorIcEEEE4boatEENS_19__map_value_compareIS7_S9_NS_4lessIS7_EELb1EEENS5_IS9_EEE10__root_ptrB8ue170006Ev, symObjAddr: 0x4E74, symBinAddr: 0x100007B14, symSize: 0x24 }
  - { offsetInCU: 0x11C40, offset: 0x19F16, size: 0x8, addend: 0x0, symName: __ZNSt3__121__tree_const_iteratorINS_12__value_typeINS_12basic_stringIcNS_11char_traitsIcEENS_9allocatorIcEEEE4boatEEPNS_11__tree_nodeIS9_PvEElEppB8ue170006Ev, symObjAddr: 0x4F88, symBinAddr: 0x100007C28, symSize: 0x38 }
  - { offsetInCU: 0x11C65, offset: 0x19F3B, size: 0x8, addend: 0x0, symName: __ZNSt3__116allocator_traitsINS_9allocatorINS_11__tree_nodeINS_12__value_typeINS_12basic_stringIcNS_11char_traitsIcEENS1_IcEEEE4boatEEPvEEEEE8allocateB8ue170006ERSD_m, symObjAddr: 0x5080, symBinAddr: 0x100007D20, symSize: 0x2C }
  - { offsetInCU: 0x11C96, offset: 0x19F6C, size: 0x8, addend: 0x0, symName: __ZNSt3__122__tree_node_destructorINS_9allocatorINS_11__tree_nodeINS_12__value_typeINS_12basic_stringIcNS_11char_traitsIcEENS1_IcEEEE4boatEEPvEEEEEC1B8ue170006ERSD_b, symObjAddr: 0x50AC, symBinAddr: 0x100007D4C, symSize: 0x48 }
  - { offsetInCU: 0x11CE1, offset: 0x19FB7, size: 0x8, addend: 0x0, symName: __ZNSt3__110unique_ptrINS_11__tree_nodeINS_12__value_typeINS_12basic_stringIcNS_11char_traitsIcEENS_9allocatorIcEEEE4boatEEPvEENS_22__tree_node_destructorINS6_ISC_EEEEEC1B8ue170006ILb1EvEEPSC_NS_16__dependent_typeINS_27__unique_ptr_deleter_sfinaeISF_EEXT_EE20__good_rval_ref_typeE, symObjAddr: 0x50F4, symBinAddr: 0x100007D94, symSize: 0x3C }
  - { offsetInCU: 0x11D32, offset: 0x1A008, size: 0x8, addend: 0x0, symName: __ZNSt3__116allocator_traitsINS_9allocatorINS_11__tree_nodeINS_12__value_typeINS_12basic_stringIcNS_11char_traitsIcEENS1_IcEEEE4boatEEPvEEEEE9constructB8ue170006INS_4pairIKS8_S9_EEJRKSI_EvEEvRSD_PT_DpOT0_, symObjAddr: 0x5130, symBinAddr: 0x100007DD0, symSize: 0x34 }
  - { offsetInCU: 0x11D8A, offset: 0x1A060, size: 0x8, addend: 0x0, symName: __ZNKSt3__110unique_ptrINS_11__tree_nodeINS_12__value_typeINS_12basic_stringIcNS_11char_traitsIcEENS_9allocatorIcEEEE4boatEEPvEENS_22__tree_node_destructorINS6_ISC_EEEEEptB8ue170006Ev, symObjAddr: 0x5164, symBinAddr: 0x100007E04, symSize: 0x28 }
  - { offsetInCU: 0x11DAE, offset: 0x1A084, size: 0x8, addend: 0x0, symName: __ZNSt3__110unique_ptrINS_11__tree_nodeINS_12__value_typeINS_12basic_stringIcNS_11char_traitsIcEENS_9allocatorIcEEEE4boatEEPvEENS_22__tree_node_destructorINS6_ISC_EEEEE11get_deleterB8ue170006Ev, symObjAddr: 0x518C, symBinAddr: 0x100007E2C, symSize: 0x24 }
  - { offsetInCU: 0x11DD2, offset: 0x1A0A8, size: 0x8, addend: 0x0, symName: __ZNSt3__19allocatorINS_11__tree_nodeINS_12__value_typeINS_12basic_stringIcNS_11char_traitsIcEENS0_IcEEEE4boatEEPvEEE8allocateB8ue170006Em, symObjAddr: 0x51B0, symBinAddr: 0x100007E50, symSize: 0x8C }
  - { offsetInCU: 0x11E0F, offset: 0x1A0E5, size: 0x8, addend: 0x0, symName: __ZNSt3__116allocator_traitsINS_9allocatorINS_11__tree_nodeINS_12__value_typeINS_12basic_stringIcNS_11char_traitsIcEENS1_IcEEEE4boatEEPvEEEEE8max_sizeB8ue170006ISD_vEEmRKSD_, symObjAddr: 0x523C, symBinAddr: 0x100007EDC, symSize: 0x24 }
  - { offsetInCU: 0x11E3D, offset: 0x1A113, size: 0x8, addend: 0x0, symName: __ZNKSt3__19allocatorINS_11__tree_nodeINS_12__value_typeINS_12basic_stringIcNS_11char_traitsIcEENS0_IcEEEE4boatEEPvEEE8max_sizeB8ue170006Ev, symObjAddr: 0x5260, symBinAddr: 0x100007F00, symSize: 0x18 }
  - { offsetInCU: 0x11E61, offset: 0x1A137, size: 0x8, addend: 0x0, symName: __ZNSt3__122__tree_node_destructorINS_9allocatorINS_11__tree_nodeINS_12__value_typeINS_12basic_stringIcNS_11char_traitsIcEENS1_IcEEEE4boatEEPvEEEEEC2B8ue170006ERSD_b, symObjAddr: 0x5278, symBinAddr: 0x100007F18, symSize: 0x38 }
  - { offsetInCU: 0x11EA6, offset: 0x1A17C, size: 0x8, addend: 0x0, symName: __ZNSt3__110unique_ptrINS_11__tree_nodeINS_12__value_typeINS_12basic_stringIcNS_11char_traitsIcEENS_9allocatorIcEEEE4boatEEPvEENS_22__tree_node_destructorINS6_ISC_EEEEEC2B8ue170006ILb1EvEEPSC_NS_16__dependent_typeINS_27__unique_ptr_deleter_sfinaeISF_EEXT_EE20__good_rval_ref_typeE, symObjAddr: 0x52B0, symBinAddr: 0x100007F50, symSize: 0x5C }
  - { offsetInCU: 0x11EF6, offset: 0x1A1CC, size: 0x8, addend: 0x0, symName: __ZNSt3__117__compressed_pairIPNS_11__tree_nodeINS_12__value_typeINS_12basic_stringIcNS_11char_traitsIcEENS_9allocatorIcEEEE4boatEEPvEENS_22__tree_node_destructorINS6_ISC_EEEEEC1B8ue170006IRSD_SG_EEOT_OT0_, symObjAddr: 0x530C, symBinAddr: 0x100007FAC, symSize: 0x3C }
  - { offsetInCU: 0x11F4C, offset: 0x1A222, size: 0x8, addend: 0x0, symName: __ZNSt3__117__compressed_pairIPNS_11__tree_nodeINS_12__value_typeINS_12basic_stringIcNS_11char_traitsIcEENS_9allocatorIcEEEE4boatEEPvEENS_22__tree_node_destructorINS6_ISC_EEEEEC2B8ue170006IRSD_SG_EEOT_OT0_, symObjAddr: 0x5348, symBinAddr: 0x100007FE8, symSize: 0x48 }
  - { offsetInCU: 0x11FA3, offset: 0x1A279, size: 0x8, addend: 0x0, symName: __ZNSt3__122__compressed_pair_elemIPNS_11__tree_nodeINS_12__value_typeINS_12basic_stringIcNS_11char_traitsIcEENS_9allocatorIcEEEE4boatEEPvEELi0ELb0EEC2B8ue170006IRSD_vEEOT_, symObjAddr: 0x5390, symBinAddr: 0x100008030, symSize: 0x24 }
  - { offsetInCU: 0x11FE4, offset: 0x1A2BA, size: 0x8, addend: 0x0, symName: __ZNSt3__122__compressed_pair_elemINS_22__tree_node_destructorINS_9allocatorINS_11__tree_nodeINS_12__value_typeINS_12basic_stringIcNS_11char_traitsIcEENS2_IcEEEE4boatEEPvEEEEEELi1ELb0EEC2B8ue170006ISF_vEEOT_, symObjAddr: 0x53B4, symBinAddr: 0x100008054, symSize: 0x24 }
  - { offsetInCU: 0x12024, offset: 0x1A2FA, size: 0x8, addend: 0x0, symName: __ZNSt3__19allocatorINS_11__tree_nodeINS_12__value_typeINS_12basic_stringIcNS_11char_traitsIcEENS0_IcEEEE4boatEEPvEEE9constructB8ue170006INS_4pairIKS7_S8_EEJRKSG_EEEvPT_DpOT0_, symObjAddr: 0x53D8, symBinAddr: 0x100008078, symSize: 0x30 }
  - { offsetInCU: 0x1207A, offset: 0x1A350, size: 0x8, addend: 0x0, symName: __ZNSt3__14pairIKNS_12basic_stringIcNS_11char_traitsIcEENS_9allocatorIcEEEE4boatEC1B8ue170006ERKS9_, symObjAddr: 0x5408, symBinAddr: 0x1000080A8, symSize: 0x34 }
  - { offsetInCU: 0x120AC, offset: 0x1A382, size: 0x8, addend: 0x0, symName: __ZNSt3__14pairIKNS_12basic_stringIcNS_11char_traitsIcEENS_9allocatorIcEEEE4boatEC2B8ue170006ERKS9_, symObjAddr: 0x543C, symBinAddr: 0x1000080DC, symSize: 0x48 }
  - { offsetInCU: 0x120DE, offset: 0x1A3B4, size: 0x8, addend: 0x0, symName: __ZNKSt3__117__compressed_pairIPNS_11__tree_nodeINS_12__value_typeINS_12basic_stringIcNS_11char_traitsIcEENS_9allocatorIcEEEE4boatEEPvEENS_22__tree_node_destructorINS6_ISC_EEEEE5firstB8ue170006Ev, symObjAddr: 0x5484, symBinAddr: 0x100008124, symSize: 0x24 }
  - { offsetInCU: 0x12103, offset: 0x1A3D9, size: 0x8, addend: 0x0, symName: __ZNKSt3__122__compressed_pair_elemIPNS_11__tree_nodeINS_12__value_typeINS_12basic_stringIcNS_11char_traitsIcEENS_9allocatorIcEEEE4boatEEPvEELi0ELb0EE5__getB8ue170006Ev, symObjAddr: 0x54A8, symBinAddr: 0x100008148, symSize: 0x14 }
  - { offsetInCU: 0x12126, offset: 0x1A3FC, size: 0x8, addend: 0x0, symName: __ZNSt3__117__compressed_pairIPNS_11__tree_nodeINS_12__value_typeINS_12basic_stringIcNS_11char_traitsIcEENS_9allocatorIcEEEE4boatEEPvEENS_22__tree_node_destructorINS6_ISC_EEEEE6secondB8ue170006Ev, symObjAddr: 0x54BC, symBinAddr: 0x10000815C, symSize: 0x28 }
  - { offsetInCU: 0x1214B, offset: 0x1A421, size: 0x8, addend: 0x0, symName: __ZNSt3__122__compressed_pair_elemINS_22__tree_node_destructorINS_9allocatorINS_11__tree_nodeINS_12__value_typeINS_12basic_stringIcNS_11char_traitsIcEENS2_IcEEEE4boatEEPvEEEEEELi1ELb0EE5__getB8ue170006Ev, symObjAddr: 0x54E4, symBinAddr: 0x100008184, symSize: 0x14 }
  - { offsetInCU: 0x1216F, offset: 0x1A445, size: 0x8, addend: 0x0, symName: __ZNSt3__116__tree_node_baseIPvE12__set_parentB8ue170006EPS2_, symObjAddr: 0x592C, symBinAddr: 0x1000085CC, symSize: 0x20 }
  - { offsetInCU: 0x121A1, offset: 0x1A477, size: 0x8, addend: 0x0, symName: __ZNSt3__117__compressed_pairIPNS_11__tree_nodeINS_12__value_typeINS_12basic_stringIcNS_11char_traitsIcEENS_9allocatorIcEEEE4boatEEPvEENS_22__tree_node_destructorINS6_ISC_EEEEE5firstB8ue170006Ev, symObjAddr: 0x594C, symBinAddr: 0x1000085EC, symSize: 0x24 }
  - { offsetInCU: 0x121C6, offset: 0x1A49C, size: 0x8, addend: 0x0, symName: __ZNSt3__122__compressed_pair_elemIPNS_11__tree_nodeINS_12__value_typeINS_12basic_stringIcNS_11char_traitsIcEENS_9allocatorIcEEEE4boatEEPvEELi0ELb0EE5__getB8ue170006Ev, symObjAddr: 0x5970, symBinAddr: 0x100008610, symSize: 0x14 }
  - { offsetInCU: 0x121E9, offset: 0x1A4BF, size: 0x8, addend: 0x0, symName: __ZNSt3__110unique_ptrINS_11__tree_nodeINS_12__value_typeINS_12basic_stringIcNS_11char_traitsIcEENS_9allocatorIcEEEE4boatEEPvEENS_22__tree_node_destructorINS6_ISC_EEEEED2B8ue170006Ev, symObjAddr: 0x5984, symBinAddr: 0x100008624, symSize: 0x30 }
  - { offsetInCU: 0x12211, offset: 0x1A4E7, size: 0x8, addend: 0x0, symName: __ZNSt3__110unique_ptrINS_11__tree_nodeINS_12__value_typeINS_12basic_stringIcNS_11char_traitsIcEENS_9allocatorIcEEEE4boatEEPvEENS_22__tree_node_destructorINS6_ISC_EEEEE5resetB8ue170006EPSC_, symObjAddr: 0x59B4, symBinAddr: 0x100008654, symSize: 0x78 }
  - { offsetInCU: 0x12253, offset: 0x1A529, size: 0x8, addend: 0x0, symName: __ZNSt3__122__tree_node_destructorINS_9allocatorINS_11__tree_nodeINS_12__value_typeINS_12basic_stringIcNS_11char_traitsIcEENS1_IcEEEE4boatEEPvEEEEEclB8ue170006EPSC_, symObjAddr: 0x5A2C, symBinAddr: 0x1000086CC, symSize: 0xAC }
  - { offsetInCU: 0x12287, offset: 0x1A55D, size: 0x8, addend: 0x0, symName: __ZNSt3__115__tree_iteratorINS_12__value_typeINS_12basic_stringIcNS_11char_traitsIcEENS_9allocatorIcEEEE4boatEEPNS_11__tree_nodeIS9_PvEElEC2B8ue170006ESD_, symObjAddr: 0x5AD8, symBinAddr: 0x100008778, symSize: 0x20 }
  - { offsetInCU: 0x122BE, offset: 0x1A594, size: 0x8, addend: 0x0, symName: __ZNSt3__14pairINS_15__tree_iteratorINS_12__value_typeINS_12basic_stringIcNS_11char_traitsIcEENS_9allocatorIcEEEE4boatEEPNS_11__tree_nodeISA_PvEElEEbEC2B8ue170006ERKSF_RKb, symObjAddr: 0x5AF8, symBinAddr: 0x100008798, symSize: 0x38 }
  - { offsetInCU: 0x12302, offset: 0x1A5D8, size: 0x8, addend: 0x0, symName: __ZNSt3__114__map_iteratorINS_15__tree_iteratorINS_12__value_typeINS_12basic_stringIcNS_11char_traitsIcEENS_9allocatorIcEEEE4boatEEPNS_11__tree_nodeISA_PvEElEEEC2B8ue170006ESF_, symObjAddr: 0x5B30, symBinAddr: 0x1000087D0, symSize: 0x20 }
  - { offsetInCU: 0x12339, offset: 0x1A60F, size: 0x8, addend: 0x0, symName: __ZNSt3__120__map_const_iteratorINS_21__tree_const_iteratorINS_12__value_typeINS_12basic_stringIcNS_11char_traitsIcEENS_9allocatorIcEEEE4boatEEPNS_11__tree_nodeISA_PvEElEEEC2B8ue170006ESF_, symObjAddr: 0x5B50, symBinAddr: 0x1000087F0, symSize: 0x20 }
  - { offsetInCU: 0x1236F, offset: 0x1A645, size: 0x8, addend: 0x0, symName: __ZNKSt3__121__tree_const_iteratorINS_12__value_typeINS_12basic_stringIcNS_11char_traitsIcEENS_9allocatorIcEEEE4boatEEPNS_11__tree_nodeIS9_PvEElEptB8ue170006Ev, symObjAddr: 0x5B70, symBinAddr: 0x100008810, symSize: 0x2C }
  - { offsetInCU: 0x12394, offset: 0x1A66A, size: 0x8, addend: 0x0, symName: __ZNSt3__114pointer_traitsIPKNS_12__value_typeINS_12basic_stringIcNS_11char_traitsIcEENS_9allocatorIcEEEE4boatEEE10pointer_toB8ue170006ERSA_, symObjAddr: 0x5B9C, symBinAddr: 0x10000883C, symSize: 0x14 }
  - { offsetInCU: 0x123B6, offset: 0x1A68C, size: 0x8, addend: 0x0, symName: __ZNKSt3__16__treeINS_12__value_typeINS_12basic_stringIcNS_11char_traitsIcEENS_9allocatorIcEEEE4boatEENS_19__map_value_compareIS7_S9_NS_4lessIS7_EELb1EEENS5_IS9_EEE5beginB8ue170006Ev, symObjAddr: 0x5BB0, symBinAddr: 0x100008850, symSize: 0x34 }
  - { offsetInCU: 0x123DB, offset: 0x1A6B1, size: 0x8, addend: 0x0, symName: __ZNKSt3__16__treeINS_12__value_typeINS_12basic_stringIcNS_11char_traitsIcEENS_9allocatorIcEEEE4boatEENS_19__map_value_compareIS7_S9_NS_4lessIS7_EELb1EEENS5_IS9_EEE12__begin_nodeB8ue170006Ev, symObjAddr: 0x5BE4, symBinAddr: 0x100008884, symSize: 0x14 }
  - { offsetInCU: 0x123FE, offset: 0x1A6D4, size: 0x8, addend: 0x0, symName: __ZNSt3__121__tree_const_iteratorINS_12__value_typeINS_12basic_stringIcNS_11char_traitsIcEENS_9allocatorIcEEEE4boatEEPNS_11__tree_nodeIS9_PvEElEC1B8ue170006EPNS_15__tree_end_nodeIPNS_16__tree_node_baseISB_EEEE, symObjAddr: 0x5BF8, symBinAddr: 0x100008898, symSize: 0x34 }
  - { offsetInCU: 0x12436, offset: 0x1A70C, size: 0x8, addend: 0x0, symName: __ZNSt3__121__tree_const_iteratorINS_12__value_typeINS_12basic_stringIcNS_11char_traitsIcEENS_9allocatorIcEEEE4boatEEPNS_11__tree_nodeIS9_PvEElEC2B8ue170006EPNS_15__tree_end_nodeIPNS_16__tree_node_baseISB_EEEE, symObjAddr: 0x5C2C, symBinAddr: 0x1000088CC, symSize: 0x20 }
  - { offsetInCU: 0x1246C, offset: 0x1A742, size: 0x8, addend: 0x0, symName: __ZNKSt3__16__treeINS_12__value_typeINS_12basic_stringIcNS_11char_traitsIcEENS_9allocatorIcEEEE4boatEENS_19__map_value_compareIS7_S9_NS_4lessIS7_EELb1EEENS5_IS9_EEE3endB8ue170006Ev, symObjAddr: 0x5C4C, symBinAddr: 0x1000088EC, symSize: 0x34 }
  - { offsetInCU: 0x12490, offset: 0x1A766, size: 0x8, addend: 0x0, symName: __ZNSt3__16__treeINS_12__value_typeINS_12basic_stringIcNS_11char_traitsIcEENS_9allocatorIcEEEE6memberEENS_19__map_value_compareIS7_S9_NS_4lessIS7_EELb1EEENS5_IS9_EEE5clearEv, symObjAddr: 0x5C80, symBinAddr: 0x100008920, symSize: 0x74 }
  - { offsetInCU: 0x124B6, offset: 0x1A78C, size: 0x8, addend: 0x0, symName: __ZNKSt3__16__treeINS_12__value_typeINS_12basic_stringIcNS_11char_traitsIcEENS_9allocatorIcEEEE6memberEENS_19__map_value_compareIS7_S9_NS_4lessIS7_EELb1EEENS5_IS9_EEE10value_compB8ue170006Ev, symObjAddr: 0x5CF4, symBinAddr: 0x100008994, symSize: 0x28 }
  - { offsetInCU: 0x124DA, offset: 0x1A7B0, size: 0x8, addend: 0x0, symName: __ZNSt3__16__treeINS_12__value_typeINS_12basic_stringIcNS_11char_traitsIcEENS_9allocatorIcEEEE6memberEENS_19__map_value_compareIS7_S9_NS_4lessIS7_EELb1EEENS5_IS9_EEE10value_compB8ue170006Ev, symObjAddr: 0x5D1C, symBinAddr: 0x1000089BC, symSize: 0x28 }
  - { offsetInCU: 0x124FE, offset: 0x1A7D4, size: 0x8, addend: 0x0, symName: __ZNSt3__16__treeINS_12__value_typeINS_12basic_stringIcNS_11char_traitsIcEENS_9allocatorIcEEEE6memberEENS_19__map_value_compareIS7_S9_NS_4lessIS7_EELb1EEENS5_IS9_EEE19__copy_assign_allocB8ue170006ERKSF_, symObjAddr: 0x5D44, symBinAddr: 0x1000089E4, symSize: 0x2C }
  - { offsetInCU: 0x12531, offset: 0x1A807, size: 0x8, addend: 0x0, symName: __ZNSt3__13mapINS_12basic_stringIcNS_11char_traitsIcEENS_9allocatorIcEEEE6memberNS_4lessIS6_EENS4_INS_4pairIKS6_S7_EEEEE6insertB8ue170006INS_20__map_const_iteratorINS_21__tree_const_iteratorINS_12__value_typeIS6_S7_EEPNS_11__tree_nodeISJ_PvEElEEEEEEvT_SQ_, symObjAddr: 0x5D70, symBinAddr: 0x100008A10, symSize: 0x8C }
  - { offsetInCU: 0x12599, offset: 0x1A86F, size: 0x8, addend: 0x0, symName: __ZNKSt3__13mapINS_12basic_stringIcNS_11char_traitsIcEENS_9allocatorIcEEEE6memberNS_4lessIS6_EENS4_INS_4pairIKS6_S7_EEEEE5beginB8ue170006Ev, symObjAddr: 0x5DFC, symBinAddr: 0x100008A9C, symSize: 0x38 }
  - { offsetInCU: 0x125BD, offset: 0x1A893, size: 0x8, addend: 0x0, symName: __ZNKSt3__13mapINS_12basic_stringIcNS_11char_traitsIcEENS_9allocatorIcEEEE6memberNS_4lessIS6_EENS4_INS_4pairIKS6_S7_EEEEE3endB8ue170006Ev, symObjAddr: 0x5E34, symBinAddr: 0x100008AD4, symSize: 0x38 }
  - { offsetInCU: 0x125E1, offset: 0x1A8B7, size: 0x8, addend: 0x0, symName: __ZNSt3__16__treeINS_12__value_typeINS_12basic_stringIcNS_11char_traitsIcEENS_9allocatorIcEEEE6memberEENS_19__map_value_compareIS7_S9_NS_4lessIS7_EELb1EEENS5_IS9_EEE4sizeB8ue170006Ev, symObjAddr: 0x5E6C, symBinAddr: 0x100008B0C, symSize: 0x28 }
  - { offsetInCU: 0x12605, offset: 0x1A8DB, size: 0x8, addend: 0x0, symName: __ZNSt3__117__compressed_pairImNS_19__map_value_compareINS_12basic_stringIcNS_11char_traitsIcEENS_9allocatorIcEEEENS_12__value_typeIS7_6memberEENS_4lessIS7_EELb1EEEE5firstB8ue170006Ev, symObjAddr: 0x5E94, symBinAddr: 0x100008B34, symSize: 0x24 }
  - { offsetInCU: 0x12629, offset: 0x1A8FF, size: 0x8, addend: 0x0, symName: __ZNKSt3__117__compressed_pairImNS_19__map_value_compareINS_12basic_stringIcNS_11char_traitsIcEENS_9allocatorIcEEEENS_12__value_typeIS7_6memberEENS_4lessIS7_EELb1EEEE6secondB8ue170006Ev, symObjAddr: 0x5EB8, symBinAddr: 0x100008B58, symSize: 0x24 }
  - { offsetInCU: 0x1264E, offset: 0x1A924, size: 0x8, addend: 0x0, symName: __ZNKSt3__122__compressed_pair_elemINS_19__map_value_compareINS_12basic_stringIcNS_11char_traitsIcEENS_9allocatorIcEEEENS_12__value_typeIS7_6memberEENS_4lessIS7_EELb1EEELi1ELb1EE5__getB8ue170006Ev, symObjAddr: 0x5EDC, symBinAddr: 0x100008B7C, symSize: 0x14 }
  - { offsetInCU: 0x12671, offset: 0x1A947, size: 0x8, addend: 0x0, symName: __ZNSt3__117__compressed_pairImNS_19__map_value_compareINS_12basic_stringIcNS_11char_traitsIcEENS_9allocatorIcEEEENS_12__value_typeIS7_6memberEENS_4lessIS7_EELb1EEEE6secondB8ue170006Ev, symObjAddr: 0x5EF0, symBinAddr: 0x100008B90, symSize: 0x24 }
  - { offsetInCU: 0x12696, offset: 0x1A96C, size: 0x8, addend: 0x0, symName: __ZNSt3__122__compressed_pair_elemINS_19__map_value_compareINS_12basic_stringIcNS_11char_traitsIcEENS_9allocatorIcEEEENS_12__value_typeIS7_6memberEENS_4lessIS7_EELb1EEELi1ELb1EE5__getB8ue170006Ev, symObjAddr: 0x5F14, symBinAddr: 0x100008BB4, symSize: 0x14 }
  - { offsetInCU: 0x126BA, offset: 0x1A990, size: 0x8, addend: 0x0, symName: __ZNSt3__16__treeINS_12__value_typeINS_12basic_stringIcNS_11char_traitsIcEENS_9allocatorIcEEEE6memberEENS_19__map_value_compareIS7_S9_NS_4lessIS7_EELb1EEENS5_IS9_EEE19__copy_assign_allocB8ue170006ERKSF_NS_17integral_constantIbLb0EEE, symObjAddr: 0x5F28, symBinAddr: 0x100008BC8, symSize: 0x14 }
  - { offsetInCU: 0x126F5, offset: 0x1A9CB, size: 0x8, addend: 0x0, symName: __ZNKSt3__13mapINS_12basic_stringIcNS_11char_traitsIcEENS_9allocatorIcEEEE6memberNS_4lessIS6_EENS4_INS_4pairIKS6_S7_EEEEE4cendB8ue170006Ev, symObjAddr: 0x5F3C, symBinAddr: 0x100008BDC, symSize: 0x2C }
  - { offsetInCU: 0x12719, offset: 0x1A9EF, size: 0x8, addend: 0x0, symName: __ZNSt3__13mapINS_12basic_stringIcNS_11char_traitsIcEENS_9allocatorIcEEEE6memberNS_4lessIS6_EENS4_INS_4pairIKS6_S7_EEEEE6insertB8ue170006ENS_20__map_const_iteratorINS_21__tree_const_iteratorINS_12__value_typeIS6_S7_EEPNS_11__tree_nodeISI_PvEElEEEERKSC_, symObjAddr: 0x5F98, symBinAddr: 0x100008C38, symSize: 0x50 }
  - { offsetInCU: 0x1275B, offset: 0x1AA31, size: 0x8, addend: 0x0, symName: __ZNSt3__120__map_const_iteratorINS_21__tree_const_iteratorINS_12__value_typeINS_12basic_stringIcNS_11char_traitsIcEENS_9allocatorIcEEEE6memberEEPNS_11__tree_nodeISA_PvEElEEEC1B8ue170006ESF_, symObjAddr: 0x5FE8, symBinAddr: 0x100008C88, symSize: 0x34 }
  - { offsetInCU: 0x12792, offset: 0x1AA68, size: 0x8, addend: 0x0, symName: __ZNKSt3__120__map_const_iteratorINS_21__tree_const_iteratorINS_12__value_typeINS_12basic_stringIcNS_11char_traitsIcEENS_9allocatorIcEEEE6memberEEPNS_11__tree_nodeISA_PvEElEEEdeB8ue170006Ev, symObjAddr: 0x601C, symBinAddr: 0x100008CBC, symSize: 0x28 }
  - { offsetInCU: 0x127B6, offset: 0x1AA8C, size: 0x8, addend: 0x0, symName: __ZNSt3__120__map_const_iteratorINS_21__tree_const_iteratorINS_12__value_typeINS_12basic_stringIcNS_11char_traitsIcEENS_9allocatorIcEEEE6memberEEPNS_11__tree_nodeISA_PvEElEEEppB8ue170006Ev, symObjAddr: 0x6044, symBinAddr: 0x100008CE4, symSize: 0x2C }
  - { offsetInCU: 0x127DA, offset: 0x1AAB0, size: 0x8, addend: 0x0, symName: __ZNSt3__16__treeINS_12__value_typeINS_12basic_stringIcNS_11char_traitsIcEENS_9allocatorIcEEEE6memberEENS_19__map_value_compareIS7_S9_NS_4lessIS7_EELb1EEENS5_IS9_EEE15__insert_uniqueB8ue170006ENS_21__tree_const_iteratorIS9_PNS_11__tree_nodeIS9_PvEElEERKNS_4pairIKS7_S8_EE, symObjAddr: 0x60D4, symBinAddr: 0x100008D74, symSize: 0x64 }
  - { offsetInCU: 0x1281C, offset: 0x1AAF2, size: 0x8, addend: 0x0, symName: __ZNSt3__114__map_iteratorINS_15__tree_iteratorINS_12__value_typeINS_12basic_stringIcNS_11char_traitsIcEENS_9allocatorIcEEEE6memberEEPNS_11__tree_nodeISA_PvEElEEEC1B8ue170006ESF_, symObjAddr: 0x6138, symBinAddr: 0x100008DD8, symSize: 0x34 }
  - { offsetInCU: 0x12853, offset: 0x1AB29, size: 0x8, addend: 0x0, symName: __ZNSt3__16__treeINS_12__value_typeINS_12basic_stringIcNS_11char_traitsIcEENS_9allocatorIcEEEE6memberEENS_19__map_value_compareIS7_S9_NS_4lessIS7_EELb1EEENS5_IS9_EEE30__emplace_hint_unique_key_argsIS7_JRKNS_4pairIKS7_S8_EEEEENSH_INS_15__tree_iteratorIS9_PNS_11__tree_nodeIS9_PvEElEEbEENS_21__tree_const_iteratorIS9_SQ_lEERKT_DpOT0_, symObjAddr: 0x616C, symBinAddr: 0x100008E0C, symSize: 0x104 }
  - { offsetInCU: 0x12920, offset: 0x1ABF6, size: 0x8, addend: 0x0, symName: __ZNSt3__122__tree_key_value_typesINS_12__value_typeINS_12basic_stringIcNS_11char_traitsIcEENS_9allocatorIcEEEE6memberEEE9__get_keyB8ue170006IKNS_4pairIKS7_S8_EEEENS_9enable_ifIXsr17__is_same_uncvrefIT_SE_EE5valueERSD_E4typeERSH_, symObjAddr: 0x6270, symBinAddr: 0x100008F10, symSize: 0x14 }
  - { offsetInCU: 0x1294C, offset: 0x1AC22, size: 0x8, addend: 0x0, symName: __ZNSt3__16__treeINS_12__value_typeINS_12basic_stringIcNS_11char_traitsIcEENS_9allocatorIcEEEE6memberEENS_19__map_value_compareIS7_S9_NS_4lessIS7_EELb1EEENS5_IS9_EEE12__find_equalIS7_EERPNS_16__tree_node_baseIPvEENS_21__tree_const_iteratorIS9_PNS_11__tree_nodeIS9_SI_EElEERPNS_15__tree_end_nodeISK_EESL_RKT_, symObjAddr: 0x6284, symBinAddr: 0x100008F24, symSize: 0x304 }
  - { offsetInCU: 0x129F3, offset: 0x1ACC9, size: 0x8, addend: 0x0, symName: __ZNSt3__16__treeINS_12__value_typeINS_12basic_stringIcNS_11char_traitsIcEENS_9allocatorIcEEEE6memberEENS_19__map_value_compareIS7_S9_NS_4lessIS7_EELb1EEENS5_IS9_EEE16__construct_nodeIJRKNS_4pairIKS7_S8_EEEEENS_10unique_ptrINS_11__tree_nodeIS9_PvEENS_22__tree_node_destructorINS5_ISP_EEEEEEDpOT_, symObjAddr: 0x6588, symBinAddr: 0x100009228, symSize: 0x118 }
  - { offsetInCU: 0x12A54, offset: 0x1AD2A, size: 0x8, addend: 0x0, symName: __ZNSt3__16__treeINS_12__value_typeINS_12basic_stringIcNS_11char_traitsIcEENS_9allocatorIcEEEE6memberEENS_19__map_value_compareIS7_S9_NS_4lessIS7_EELb1EEENS5_IS9_EEE16__insert_node_atEPNS_15__tree_end_nodeIPNS_16__tree_node_baseIPvEEEERSK_SK_, symObjAddr: 0x66A0, symBinAddr: 0x100009340, symSize: 0xCC }
  - { offsetInCU: 0x12AA7, offset: 0x1AD7D, size: 0x8, addend: 0x0, symName: __ZNKSt3__110unique_ptrINS_11__tree_nodeINS_12__value_typeINS_12basic_stringIcNS_11char_traitsIcEENS_9allocatorIcEEEE6memberEEPvEENS_22__tree_node_destructorINS6_ISC_EEEEE3getB8ue170006Ev, symObjAddr: 0x676C, symBinAddr: 0x10000940C, symSize: 0x28 }
  - { offsetInCU: 0x12ACB, offset: 0x1ADA1, size: 0x8, addend: 0x0, symName: __ZNSt3__110unique_ptrINS_11__tree_nodeINS_12__value_typeINS_12basic_stringIcNS_11char_traitsIcEENS_9allocatorIcEEEE6memberEEPvEENS_22__tree_node_destructorINS6_ISC_EEEEE7releaseB8ue170006Ev, symObjAddr: 0x6794, symBinAddr: 0x100009434, symSize: 0x44 }
  - { offsetInCU: 0x12AFE, offset: 0x1ADD4, size: 0x8, addend: 0x0, symName: __ZNSt3__110unique_ptrINS_11__tree_nodeINS_12__value_typeINS_12basic_stringIcNS_11char_traitsIcEENS_9allocatorIcEEEE6memberEEPvEENS_22__tree_node_destructorINS6_ISC_EEEEED1B8ue170006Ev, symObjAddr: 0x67D8, symBinAddr: 0x100009478, symSize: 0x2C }
  - { offsetInCU: 0x12B26, offset: 0x1ADFC, size: 0x8, addend: 0x0, symName: __ZNSt3__115__tree_iteratorINS_12__value_typeINS_12basic_stringIcNS_11char_traitsIcEENS_9allocatorIcEEEE6memberEEPNS_11__tree_nodeIS9_PvEElEC1B8ue170006ESD_, symObjAddr: 0x6804, symBinAddr: 0x1000094A4, symSize: 0x34 }
  - { offsetInCU: 0x12B5D, offset: 0x1AE33, size: 0x8, addend: 0x0, symName: __ZNSt3__14pairINS_15__tree_iteratorINS_12__value_typeINS_12basic_stringIcNS_11char_traitsIcEENS_9allocatorIcEEEE6memberEEPNS_11__tree_nodeISA_PvEElEEbEC1B8ue170006ERKSF_RKb, symObjAddr: 0x6838, symBinAddr: 0x1000094D8, symSize: 0x3C }
  - { offsetInCU: 0x12BA1, offset: 0x1AE77, size: 0x8, addend: 0x0, symName: __ZNSt3__16__treeINS_12__value_typeINS_12basic_stringIcNS_11char_traitsIcEENS_9allocatorIcEEEE6memberEENS_19__map_value_compareIS7_S9_NS_4lessIS7_EELb1EEENS5_IS9_EEE3endB8ue170006Ev, symObjAddr: 0x6874, symBinAddr: 0x100009514, symSize: 0x34 }
  - { offsetInCU: 0x12BC5, offset: 0x1AE9B, size: 0x8, addend: 0x0, symName: __ZNSt3__121__tree_const_iteratorINS_12__value_typeINS_12basic_stringIcNS_11char_traitsIcEENS_9allocatorIcEEEE6memberEEPNS_11__tree_nodeIS9_PvEElEC1B8ue170006ENS_15__tree_iteratorIS9_SD_lEE, symObjAddr: 0x68A8, symBinAddr: 0x100009548, symSize: 0x34 }
  - { offsetInCU: 0x12BFC, offset: 0x1AED2, size: 0x8, addend: 0x0, symName: __ZNKSt3__119__map_value_compareINS_12basic_stringIcNS_11char_traitsIcEENS_9allocatorIcEEEENS_12__value_typeIS6_6memberEENS_4lessIS6_EELb1EEclB8ue170006ERKS6_RKS9_, symObjAddr: 0x68DC, symBinAddr: 0x10000957C, symSize: 0x50 }
  - { offsetInCU: 0x12C3E, offset: 0x1AF14, size: 0x8, addend: 0x0, symName: __ZNKSt3__121__tree_const_iteratorINS_12__value_typeINS_12basic_stringIcNS_11char_traitsIcEENS_9allocatorIcEEEE6memberEEPNS_11__tree_nodeIS9_PvEElEdeB8ue170006Ev, symObjAddr: 0x692C, symBinAddr: 0x1000095CC, symSize: 0x28 }
  - { offsetInCU: 0x12C62, offset: 0x1AF38, size: 0x8, addend: 0x0, symName: __ZNSt3__16__treeINS_12__value_typeINS_12basic_stringIcNS_11char_traitsIcEENS_9allocatorIcEEEE6memberEENS_19__map_value_compareIS7_S9_NS_4lessIS7_EELb1EEENS5_IS9_EEE5beginB8ue170006Ev, symObjAddr: 0x6954, symBinAddr: 0x1000095F4, symSize: 0x34 }
  - { offsetInCU: 0x12C86, offset: 0x1AF5C, size: 0x8, addend: 0x0, symName: __ZNKSt3__119__map_value_compareINS_12basic_stringIcNS_11char_traitsIcEENS_9allocatorIcEEEENS_12__value_typeIS6_6memberEENS_4lessIS6_EELb1EEclB8ue170006ERKS9_RKS6_, symObjAddr: 0x6988, symBinAddr: 0x100009628, symSize: 0x48 }
  - { offsetInCU: 0x12CC8, offset: 0x1AF9E, size: 0x8, addend: 0x0, symName: __ZNSt3__121__tree_const_iteratorINS_12__value_typeINS_12basic_stringIcNS_11char_traitsIcEENS_9allocatorIcEEEE6memberEEPNS_11__tree_nodeIS9_PvEElEmmB8ue170006Ev, symObjAddr: 0x69D0, symBinAddr: 0x100009670, symSize: 0x38 }
  - { offsetInCU: 0x12CEC, offset: 0x1AFC2, size: 0x8, addend: 0x0, symName: __ZNSt3__16__treeINS_12__value_typeINS_12basic_stringIcNS_11char_traitsIcEENS_9allocatorIcEEEE6memberEENS_19__map_value_compareIS7_S9_NS_4lessIS7_EELb1EEENS5_IS9_EEE12__find_equalIS7_EERPNS_16__tree_node_baseIPvEERPNS_15__tree_end_nodeISK_EERKT_, symObjAddr: 0x6A08, symBinAddr: 0x1000096A8, symSize: 0x184 }
  - { offsetInCU: 0x12D58, offset: 0x1B02E, size: 0x8, addend: 0x0, symName: __ZNKSt3__121__tree_const_iteratorINS_12__value_typeINS_12basic_stringIcNS_11char_traitsIcEENS_9allocatorIcEEEE6memberEEPNS_11__tree_nodeIS9_PvEElE8__get_npB8ue170006Ev, symObjAddr: 0x6BC8, symBinAddr: 0x100009868, symSize: 0x18 }
  - { offsetInCU: 0x12D7B, offset: 0x1B051, size: 0x8, addend: 0x0, symName: __ZNSt3__115__tree_iteratorINS_12__value_typeINS_12basic_stringIcNS_11char_traitsIcEENS_9allocatorIcEEEE6memberEEPNS_11__tree_nodeIS9_PvEElEC1B8ue170006EPNS_15__tree_end_nodeIPNS_16__tree_node_baseISB_EEEE, symObjAddr: 0x6BE0, symBinAddr: 0x100009880, symSize: 0x34 }
  - { offsetInCU: 0x12DB3, offset: 0x1B089, size: 0x8, addend: 0x0, symName: __ZNSt3__115__tree_iteratorINS_12__value_typeINS_12basic_stringIcNS_11char_traitsIcEENS_9allocatorIcEEEE6memberEEPNS_11__tree_nodeIS9_PvEElEC2B8ue170006EPNS_15__tree_end_nodeIPNS_16__tree_node_baseISB_EEEE, symObjAddr: 0x6C14, symBinAddr: 0x1000098B4, symSize: 0x20 }
  - { offsetInCU: 0x12DEA, offset: 0x1B0C0, size: 0x8, addend: 0x0, symName: __ZNSt3__121__tree_const_iteratorINS_12__value_typeINS_12basic_stringIcNS_11char_traitsIcEENS_9allocatorIcEEEE6memberEEPNS_11__tree_nodeIS9_PvEElEC2B8ue170006ENS_15__tree_iteratorIS9_SD_lEE, symObjAddr: 0x6C34, symBinAddr: 0x1000098D4, symSize: 0x20 }
  - { offsetInCU: 0x12E21, offset: 0x1B0F7, size: 0x8, addend: 0x0, symName: __ZNKSt3__112__value_typeINS_12basic_stringIcNS_11char_traitsIcEENS_9allocatorIcEEEE6memberE11__get_valueB8ue170006Ev, symObjAddr: 0x6C54, symBinAddr: 0x1000098F4, symSize: 0x14 }
  - { offsetInCU: 0x12E44, offset: 0x1B11A, size: 0x8, addend: 0x0, symName: __ZNKSt3__16__treeINS_12__value_typeINS_12basic_stringIcNS_11char_traitsIcEENS_9allocatorIcEEEE6memberEENS_19__map_value_compareIS7_S9_NS_4lessIS7_EELb1EEENS5_IS9_EEE10__root_ptrB8ue170006Ev, symObjAddr: 0x6C68, symBinAddr: 0x100009908, symSize: 0x24 }
  - { offsetInCU: 0x12E68, offset: 0x1B13E, size: 0x8, addend: 0x0, symName: __ZNSt3__121__tree_const_iteratorINS_12__value_typeINS_12basic_stringIcNS_11char_traitsIcEENS_9allocatorIcEEEE6memberEEPNS_11__tree_nodeIS9_PvEElEppB8ue170006Ev, symObjAddr: 0x6D68, symBinAddr: 0x100009A08, symSize: 0x38 }
  - { offsetInCU: 0x12E8D, offset: 0x1B163, size: 0x8, addend: 0x0, symName: __ZNSt3__116allocator_traitsINS_9allocatorINS_11__tree_nodeINS_12__value_typeINS_12basic_stringIcNS_11char_traitsIcEENS1_IcEEEE6memberEEPvEEEEE8allocateB8ue170006ERSD_m, symObjAddr: 0x6DA0, symBinAddr: 0x100009A40, symSize: 0x2C }
  - { offsetInCU: 0x12EBE, offset: 0x1B194, size: 0x8, addend: 0x0, symName: __ZNSt3__122__tree_node_destructorINS_9allocatorINS_11__tree_nodeINS_12__value_typeINS_12basic_stringIcNS_11char_traitsIcEENS1_IcEEEE6memberEEPvEEEEEC1B8ue170006ERSD_b, symObjAddr: 0x6DCC, symBinAddr: 0x100009A6C, symSize: 0x48 }
  - { offsetInCU: 0x12F09, offset: 0x1B1DF, size: 0x8, addend: 0x0, symName: __ZNSt3__110unique_ptrINS_11__tree_nodeINS_12__value_typeINS_12basic_stringIcNS_11char_traitsIcEENS_9allocatorIcEEEE6memberEEPvEENS_22__tree_node_destructorINS6_ISC_EEEEEC1B8ue170006ILb1EvEEPSC_NS_16__dependent_typeINS_27__unique_ptr_deleter_sfinaeISF_EEXT_EE20__good_rval_ref_typeE, symObjAddr: 0x6E14, symBinAddr: 0x100009AB4, symSize: 0x3C }
  - { offsetInCU: 0x12F5A, offset: 0x1B230, size: 0x8, addend: 0x0, symName: __ZNSt3__116allocator_traitsINS_9allocatorINS_11__tree_nodeINS_12__value_typeINS_12basic_stringIcNS_11char_traitsIcEENS1_IcEEEE6memberEEPvEEEEE9constructB8ue170006INS_4pairIKS8_S9_EEJRKSI_EvEEvRSD_PT_DpOT0_, symObjAddr: 0x6E50, symBinAddr: 0x100009AF0, symSize: 0x34 }
  - { offsetInCU: 0x12FB2, offset: 0x1B288, size: 0x8, addend: 0x0, symName: __ZNKSt3__110unique_ptrINS_11__tree_nodeINS_12__value_typeINS_12basic_stringIcNS_11char_traitsIcEENS_9allocatorIcEEEE6memberEEPvEENS_22__tree_node_destructorINS6_ISC_EEEEEptB8ue170006Ev, symObjAddr: 0x6E84, symBinAddr: 0x100009B24, symSize: 0x28 }
  - { offsetInCU: 0x12FD6, offset: 0x1B2AC, size: 0x8, addend: 0x0, symName: __ZNSt3__110unique_ptrINS_11__tree_nodeINS_12__value_typeINS_12basic_stringIcNS_11char_traitsIcEENS_9allocatorIcEEEE6memberEEPvEENS_22__tree_node_destructorINS6_ISC_EEEEE11get_deleterB8ue170006Ev, symObjAddr: 0x6EAC, symBinAddr: 0x100009B4C, symSize: 0x24 }
  - { offsetInCU: 0x12FFA, offset: 0x1B2D0, size: 0x8, addend: 0x0, symName: __ZNSt3__19allocatorINS_11__tree_nodeINS_12__value_typeINS_12basic_stringIcNS_11char_traitsIcEENS0_IcEEEE6memberEEPvEEE8allocateB8ue170006Em, symObjAddr: 0x6ED0, symBinAddr: 0x100009B70, symSize: 0x8C }
  - { offsetInCU: 0x13037, offset: 0x1B30D, size: 0x8, addend: 0x0, symName: __ZNSt3__116allocator_traitsINS_9allocatorINS_11__tree_nodeINS_12__value_typeINS_12basic_stringIcNS_11char_traitsIcEENS1_IcEEEE6memberEEPvEEEEE8max_sizeB8ue170006ISD_vEEmRKSD_, symObjAddr: 0x6F5C, symBinAddr: 0x100009BFC, symSize: 0x24 }
  - { offsetInCU: 0x13065, offset: 0x1B33B, size: 0x8, addend: 0x0, symName: __ZNKSt3__19allocatorINS_11__tree_nodeINS_12__value_typeINS_12basic_stringIcNS_11char_traitsIcEENS0_IcEEEE6memberEEPvEEE8max_sizeB8ue170006Ev, symObjAddr: 0x6F80, symBinAddr: 0x100009C20, symSize: 0x20 }
  - { offsetInCU: 0x13089, offset: 0x1B35F, size: 0x8, addend: 0x0, symName: __ZNSt3__122__tree_node_destructorINS_9allocatorINS_11__tree_nodeINS_12__value_typeINS_12basic_stringIcNS_11char_traitsIcEENS1_IcEEEE6memberEEPvEEEEEC2B8ue170006ERSD_b, symObjAddr: 0x6FA0, symBinAddr: 0x100009C40, symSize: 0x38 }
  - { offsetInCU: 0x130CE, offset: 0x1B3A4, size: 0x8, addend: 0x0, symName: __ZNSt3__110unique_ptrINS_11__tree_nodeINS_12__value_typeINS_12basic_stringIcNS_11char_traitsIcEENS_9allocatorIcEEEE6memberEEPvEENS_22__tree_node_destructorINS6_ISC_EEEEEC2B8ue170006ILb1EvEEPSC_NS_16__dependent_typeINS_27__unique_ptr_deleter_sfinaeISF_EEXT_EE20__good_rval_ref_typeE, symObjAddr: 0x6FD8, symBinAddr: 0x100009C78, symSize: 0x5C }
  - { offsetInCU: 0x1311E, offset: 0x1B3F4, size: 0x8, addend: 0x0, symName: __ZNSt3__117__compressed_pairIPNS_11__tree_nodeINS_12__value_typeINS_12basic_stringIcNS_11char_traitsIcEENS_9allocatorIcEEEE6memberEEPvEENS_22__tree_node_destructorINS6_ISC_EEEEEC1B8ue170006IRSD_SG_EEOT_OT0_, symObjAddr: 0x7034, symBinAddr: 0x100009CD4, symSize: 0x3C }
  - { offsetInCU: 0x13174, offset: 0x1B44A, size: 0x8, addend: 0x0, symName: __ZNSt3__117__compressed_pairIPNS_11__tree_nodeINS_12__value_typeINS_12basic_stringIcNS_11char_traitsIcEENS_9allocatorIcEEEE6memberEEPvEENS_22__tree_node_destructorINS6_ISC_EEEEEC2B8ue170006IRSD_SG_EEOT_OT0_, symObjAddr: 0x7070, symBinAddr: 0x100009D10, symSize: 0x48 }
  - { offsetInCU: 0x131CB, offset: 0x1B4A1, size: 0x8, addend: 0x0, symName: __ZNSt3__122__compressed_pair_elemIPNS_11__tree_nodeINS_12__value_typeINS_12basic_stringIcNS_11char_traitsIcEENS_9allocatorIcEEEE6memberEEPvEELi0ELb0EEC2B8ue170006IRSD_vEEOT_, symObjAddr: 0x70B8, symBinAddr: 0x100009D58, symSize: 0x24 }
  - { offsetInCU: 0x1320C, offset: 0x1B4E2, size: 0x8, addend: 0x0, symName: __ZNSt3__122__compressed_pair_elemINS_22__tree_node_destructorINS_9allocatorINS_11__tree_nodeINS_12__value_typeINS_12basic_stringIcNS_11char_traitsIcEENS2_IcEEEE6memberEEPvEEEEEELi1ELb0EEC2B8ue170006ISF_vEEOT_, symObjAddr: 0x70DC, symBinAddr: 0x100009D7C, symSize: 0x24 }
  - { offsetInCU: 0x1324C, offset: 0x1B522, size: 0x8, addend: 0x0, symName: __ZNSt3__19allocatorINS_11__tree_nodeINS_12__value_typeINS_12basic_stringIcNS_11char_traitsIcEENS0_IcEEEE6memberEEPvEEE9constructB8ue170006INS_4pairIKS7_S8_EEJRKSG_EEEvPT_DpOT0_, symObjAddr: 0x7100, symBinAddr: 0x100009DA0, symSize: 0x30 }
  - { offsetInCU: 0x132A2, offset: 0x1B578, size: 0x8, addend: 0x0, symName: __ZNSt3__14pairIKNS_12basic_stringIcNS_11char_traitsIcEENS_9allocatorIcEEEE6memberEC1B8ue170006ERKS9_, symObjAddr: 0x7130, symBinAddr: 0x100009DD0, symSize: 0x34 }
  - { offsetInCU: 0x132D4, offset: 0x1B5AA, size: 0x8, addend: 0x0, symName: __ZNSt3__14pairIKNS_12basic_stringIcNS_11char_traitsIcEENS_9allocatorIcEEEE6memberEC2B8ue170006ERKS9_, symObjAddr: 0x7164, symBinAddr: 0x100009E04, symSize: 0x48 }
  - { offsetInCU: 0x13306, offset: 0x1B5DC, size: 0x8, addend: 0x0, symName: __ZNKSt3__117__compressed_pairIPNS_11__tree_nodeINS_12__value_typeINS_12basic_stringIcNS_11char_traitsIcEENS_9allocatorIcEEEE6memberEEPvEENS_22__tree_node_destructorINS6_ISC_EEEEE5firstB8ue170006Ev, symObjAddr: 0x71AC, symBinAddr: 0x100009E4C, symSize: 0x24 }
  - { offsetInCU: 0x1332B, offset: 0x1B601, size: 0x8, addend: 0x0, symName: __ZNKSt3__122__compressed_pair_elemIPNS_11__tree_nodeINS_12__value_typeINS_12basic_stringIcNS_11char_traitsIcEENS_9allocatorIcEEEE6memberEEPvEELi0ELb0EE5__getB8ue170006Ev, symObjAddr: 0x71D0, symBinAddr: 0x100009E70, symSize: 0x14 }
  - { offsetInCU: 0x1334E, offset: 0x1B624, size: 0x8, addend: 0x0, symName: __ZNSt3__117__compressed_pairIPNS_11__tree_nodeINS_12__value_typeINS_12basic_stringIcNS_11char_traitsIcEENS_9allocatorIcEEEE6memberEEPvEENS_22__tree_node_destructorINS6_ISC_EEEEE6secondB8ue170006Ev, symObjAddr: 0x71E4, symBinAddr: 0x100009E84, symSize: 0x28 }
  - { offsetInCU: 0x13373, offset: 0x1B649, size: 0x8, addend: 0x0, symName: __ZNSt3__122__compressed_pair_elemINS_22__tree_node_destructorINS_9allocatorINS_11__tree_nodeINS_12__value_typeINS_12basic_stringIcNS_11char_traitsIcEENS2_IcEEEE6memberEEPvEEEEEELi1ELb0EE5__getB8ue170006Ev, symObjAddr: 0x720C, symBinAddr: 0x100009EAC, symSize: 0x14 }
  - { offsetInCU: 0x13396, offset: 0x1B66C, size: 0x8, addend: 0x0, symName: __ZNSt3__117__compressed_pairIPNS_11__tree_nodeINS_12__value_typeINS_12basic_stringIcNS_11char_traitsIcEENS_9allocatorIcEEEE6memberEEPvEENS_22__tree_node_destructorINS6_ISC_EEEEE5firstB8ue170006Ev, symObjAddr: 0x7220, symBinAddr: 0x100009EC0, symSize: 0x24 }
  - { offsetInCU: 0x133BB, offset: 0x1B691, size: 0x8, addend: 0x0, symName: __ZNSt3__122__compressed_pair_elemIPNS_11__tree_nodeINS_12__value_typeINS_12basic_stringIcNS_11char_traitsIcEENS_9allocatorIcEEEE6memberEEPvEELi0ELb0EE5__getB8ue170006Ev, symObjAddr: 0x7244, symBinAddr: 0x100009EE4, symSize: 0x14 }
  - { offsetInCU: 0x133DE, offset: 0x1B6B4, size: 0x8, addend: 0x0, symName: __ZNSt3__110unique_ptrINS_11__tree_nodeINS_12__value_typeINS_12basic_stringIcNS_11char_traitsIcEENS_9allocatorIcEEEE6memberEEPvEENS_22__tree_node_destructorINS6_ISC_EEEEED2B8ue170006Ev, symObjAddr: 0x7258, symBinAddr: 0x100009EF8, symSize: 0x30 }
  - { offsetInCU: 0x13406, offset: 0x1B6DC, size: 0x8, addend: 0x0, symName: __ZNSt3__110unique_ptrINS_11__tree_nodeINS_12__value_typeINS_12basic_stringIcNS_11char_traitsIcEENS_9allocatorIcEEEE6memberEEPvEENS_22__tree_node_destructorINS6_ISC_EEEEE5resetB8ue170006EPSC_, symObjAddr: 0x7288, symBinAddr: 0x100009F28, symSize: 0x78 }
  - { offsetInCU: 0x13448, offset: 0x1B71E, size: 0x8, addend: 0x0, symName: __ZNSt3__122__tree_node_destructorINS_9allocatorINS_11__tree_nodeINS_12__value_typeINS_12basic_stringIcNS_11char_traitsIcEENS1_IcEEEE6memberEEPvEEEEEclB8ue170006EPSC_, symObjAddr: 0x7300, symBinAddr: 0x100009FA0, symSize: 0xAC }
  - { offsetInCU: 0x1347C, offset: 0x1B752, size: 0x8, addend: 0x0, symName: __ZNSt3__115__tree_iteratorINS_12__value_typeINS_12basic_stringIcNS_11char_traitsIcEENS_9allocatorIcEEEE6memberEEPNS_11__tree_nodeIS9_PvEElEC2B8ue170006ESD_, symObjAddr: 0x73AC, symBinAddr: 0x10000A04C, symSize: 0x20 }
  - { offsetInCU: 0x134B3, offset: 0x1B789, size: 0x8, addend: 0x0, symName: __ZNSt3__14pairINS_15__tree_iteratorINS_12__value_typeINS_12basic_stringIcNS_11char_traitsIcEENS_9allocatorIcEEEE6memberEEPNS_11__tree_nodeISA_PvEElEEbEC2B8ue170006ERKSF_RKb, symObjAddr: 0x73CC, symBinAddr: 0x10000A06C, symSize: 0x38 }
  - { offsetInCU: 0x134F7, offset: 0x1B7CD, size: 0x8, addend: 0x0, symName: __ZNSt3__114__map_iteratorINS_15__tree_iteratorINS_12__value_typeINS_12basic_stringIcNS_11char_traitsIcEENS_9allocatorIcEEEE6memberEEPNS_11__tree_nodeISA_PvEElEEEC2B8ue170006ESF_, symObjAddr: 0x7404, symBinAddr: 0x10000A0A4, symSize: 0x20 }
  - { offsetInCU: 0x1352E, offset: 0x1B804, size: 0x8, addend: 0x0, symName: __ZNSt3__120__map_const_iteratorINS_21__tree_const_iteratorINS_12__value_typeINS_12basic_stringIcNS_11char_traitsIcEENS_9allocatorIcEEEE6memberEEPNS_11__tree_nodeISA_PvEElEEEC2B8ue170006ESF_, symObjAddr: 0x7424, symBinAddr: 0x10000A0C4, symSize: 0x20 }
  - { offsetInCU: 0x13564, offset: 0x1B83A, size: 0x8, addend: 0x0, symName: __ZNKSt3__121__tree_const_iteratorINS_12__value_typeINS_12basic_stringIcNS_11char_traitsIcEENS_9allocatorIcEEEE6memberEEPNS_11__tree_nodeIS9_PvEElEptB8ue170006Ev, symObjAddr: 0x7444, symBinAddr: 0x10000A0E4, symSize: 0x2C }
  - { offsetInCU: 0x13589, offset: 0x1B85F, size: 0x8, addend: 0x0, symName: __ZNSt3__114pointer_traitsIPKNS_12__value_typeINS_12basic_stringIcNS_11char_traitsIcEENS_9allocatorIcEEEE6memberEEE10pointer_toB8ue170006ERSA_, symObjAddr: 0x7470, symBinAddr: 0x10000A110, symSize: 0x14 }
  - { offsetInCU: 0x135AB, offset: 0x1B881, size: 0x8, addend: 0x0, symName: __ZNKSt3__16__treeINS_12__value_typeINS_12basic_stringIcNS_11char_traitsIcEENS_9allocatorIcEEEE6memberEENS_19__map_value_compareIS7_S9_NS_4lessIS7_EELb1EEENS5_IS9_EEE5beginB8ue170006Ev, symObjAddr: 0x7484, symBinAddr: 0x10000A124, symSize: 0x34 }
  - { offsetInCU: 0x135D0, offset: 0x1B8A6, size: 0x8, addend: 0x0, symName: __ZNKSt3__16__treeINS_12__value_typeINS_12basic_stringIcNS_11char_traitsIcEENS_9allocatorIcEEEE6memberEENS_19__map_value_compareIS7_S9_NS_4lessIS7_EELb1EEENS5_IS9_EEE12__begin_nodeB8ue170006Ev, symObjAddr: 0x74B8, symBinAddr: 0x10000A158, symSize: 0x14 }
  - { offsetInCU: 0x135F3, offset: 0x1B8C9, size: 0x8, addend: 0x0, symName: __ZNSt3__121__tree_const_iteratorINS_12__value_typeINS_12basic_stringIcNS_11char_traitsIcEENS_9allocatorIcEEEE6memberEEPNS_11__tree_nodeIS9_PvEElEC1B8ue170006EPNS_15__tree_end_nodeIPNS_16__tree_node_baseISB_EEEE, symObjAddr: 0x74CC, symBinAddr: 0x10000A16C, symSize: 0x34 }
  - { offsetInCU: 0x1362B, offset: 0x1B901, size: 0x8, addend: 0x0, symName: __ZNSt3__121__tree_const_iteratorINS_12__value_typeINS_12basic_stringIcNS_11char_traitsIcEENS_9allocatorIcEEEE6memberEEPNS_11__tree_nodeIS9_PvEElEC2B8ue170006EPNS_15__tree_end_nodeIPNS_16__tree_node_baseISB_EEEE, symObjAddr: 0x7500, symBinAddr: 0x10000A1A0, symSize: 0x20 }
  - { offsetInCU: 0x13661, offset: 0x1B937, size: 0x8, addend: 0x0, symName: __ZNKSt3__16__treeINS_12__value_typeINS_12basic_stringIcNS_11char_traitsIcEENS_9allocatorIcEEEE6memberEENS_19__map_value_compareIS7_S9_NS_4lessIS7_EELb1EEENS5_IS9_EEE3endB8ue170006Ev, symObjAddr: 0x7520, symBinAddr: 0x10000A1C0, symSize: 0x34 }
  - { offsetInCU: 0x13685, offset: 0x1B95B, size: 0x8, addend: 0x0, symName: __ZNSt3__16__treeINS_12__value_typeINS_12basic_stringIcNS_11char_traitsIcEENS_9allocatorIcEEEE4boatEENS_19__map_value_compareIS7_S9_NS_4lessIS7_EELb1EEENS5_IS9_EEE4findIS7_EENS_15__tree_iteratorIS9_PNS_11__tree_nodeIS9_PvEElEERKT_, symObjAddr: 0x7554, symBinAddr: 0x10000A1F4, symSize: 0xF8 }
  - { offsetInCU: 0x136D2, offset: 0x1B9A8, size: 0x8, addend: 0x0, symName: __ZNSt3__16__treeINS_12__value_typeINS_12basic_stringIcNS_11char_traitsIcEENS_9allocatorIcEEEE4boatEENS_19__map_value_compareIS7_S9_NS_4lessIS7_EELb1EEENS5_IS9_EEE13__lower_boundIS7_EENS_15__tree_iteratorIS9_PNS_11__tree_nodeIS9_PvEElEERKT_SL_PNS_15__tree_end_nodeIPNS_16__tree_node_baseISJ_EEEE, symObjAddr: 0x764C, symBinAddr: 0x10000A2EC, symSize: 0xA4 }
  - { offsetInCU: 0x1372E, offset: 0x1BA04, size: 0x8, addend: 0x0, symName: __ZNKSt3__115__tree_iteratorINS_12__value_typeINS_12basic_stringIcNS_11char_traitsIcEENS_9allocatorIcEEEE4boatEEPNS_11__tree_nodeIS9_PvEElEdeB8ue170006Ev, symObjAddr: 0x7724, symBinAddr: 0x10000A3C4, symSize: 0x28 }
  - { offsetInCU: 0x13753, offset: 0x1BA29, size: 0x8, addend: 0x0, symName: __ZNKSt3__115__tree_iteratorINS_12__value_typeINS_12basic_stringIcNS_11char_traitsIcEENS_9allocatorIcEEEE4boatEEPNS_11__tree_nodeIS9_PvEElE8__get_npB8ue170006Ev, symObjAddr: 0x777C, symBinAddr: 0x10000A41C, symSize: 0x18 }
  - { offsetInCU: 0x13776, offset: 0x1BA4C, size: 0x8, addend: 0x0, symName: __ZNSt3__112basic_stringIcNS_11char_traitsIcEENS_9allocatorIcEEEC2B8ue170006ILi0EEEPKc, symObjAddr: 0x7794, symBinAddr: 0x10000A434, symSize: 0x58 }
  - { offsetInCU: 0x137B4, offset: 0x1BA8A, size: 0x8, addend: 0x0, symName: __ZNKSt3__16__treeINS_12__value_typeINS_12basic_stringIcNS_11char_traitsIcEENS_9allocatorIcEEEE4boatEENS_19__map_value_compareIS7_S9_NS_4lessIS7_EELb1EEENS5_IS9_EEE4sizeB8ue170006Ev, symObjAddr: 0x7858, symBinAddr: 0x10000A48C, symSize: 0x28 }
  - { offsetInCU: 0x137D8, offset: 0x1BAAE, size: 0x8, addend: 0x0, symName: __ZNKSt3__117__compressed_pairImNS_19__map_value_compareINS_12basic_stringIcNS_11char_traitsIcEENS_9allocatorIcEEEENS_12__value_typeIS7_4boatEENS_4lessIS7_EELb1EEEE5firstB8ue170006Ev, symObjAddr: 0x7880, symBinAddr: 0x10000A4B4, symSize: 0x24 }
  - { offsetInCU: 0x137FD, offset: 0x1BAD3, size: 0x8, addend: 0x0, symName: __ZNKSt3__122__compressed_pair_elemImLi0ELb0EE5__getB8ue170006Ev, symObjAddr: 0x78A4, symBinAddr: 0x10000A4D8, symSize: 0x14 }
  - { offsetInCU: 0x13820, offset: 0x1BAF6, size: 0x8, addend: 0x0, symName: __ZNKSt3__16__treeINS_12__value_typeINS_12basic_stringIcNS_11char_traitsIcEENS_9allocatorIcEEEE4boatEENS_19__map_value_compareIS7_S9_NS_4lessIS7_EELb1EEENS5_IS9_EEE8max_sizeB8ue170006Ev, symObjAddr: 0x78B8, symBinAddr: 0x10000A4EC, symSize: 0x74 }
  - { offsetInCU: 0x13844, offset: 0x1BB1A, size: 0x8, addend: 0x0, symName: __ZNKSt3__16__treeINS_12__value_typeINS_12basic_stringIcNS_11char_traitsIcEENS_9allocatorIcEEEE4boatEENS_19__map_value_compareIS7_S9_NS_4lessIS7_EELb1EEENS5_IS9_EEE12__node_allocB8ue170006Ev, symObjAddr: 0x792C, symBinAddr: 0x10000A560, symSize: 0x28 }
  - { offsetInCU: 0x13869, offset: 0x1BB3F, size: 0x8, addend: 0x0, symName: __ZNSt3__114numeric_limitsIlE3maxB8ue170006Ev, symObjAddr: 0x7954, symBinAddr: 0x10000A588, symSize: 0x14 }
  - { offsetInCU: 0x1387C, offset: 0x1BB52, size: 0x8, addend: 0x0, symName: __ZNKSt3__117__compressed_pairINS_15__tree_end_nodeIPNS_16__tree_node_baseIPvEEEENS_9allocatorINS_11__tree_nodeINS_12__value_typeINS_12basic_stringIcNS_11char_traitsIcEENS7_IcEEEE4boatEES3_EEEEE6secondB8ue170006Ev, symObjAddr: 0x7968, symBinAddr: 0x10000A59C, symSize: 0x24 }
  - { offsetInCU: 0x138A1, offset: 0x1BB77, size: 0x8, addend: 0x0, symName: __ZNKSt3__122__compressed_pair_elemINS_9allocatorINS_11__tree_nodeINS_12__value_typeINS_12basic_stringIcNS_11char_traitsIcEENS1_IcEEEE4boatEEPvEEEELi1ELb1EE5__getB8ue170006Ev, symObjAddr: 0x798C, symBinAddr: 0x10000A5C0, symSize: 0x14 }
  - { offsetInCU: 0x138C5, offset: 0x1BB9B, size: 0x8, addend: 0x0, symName: __ZNSt3__123__libcpp_numeric_limitsIlLb1EE3maxB8ue170006Ev, symObjAddr: 0x79A0, symBinAddr: 0x10000A5D4, symSize: 0x8 }
  - { offsetInCU: 0x138D8, offset: 0x1BBAE, size: 0x8, addend: 0x0, symName: __ZNSt3__14pairIPKc4boatEC1B8ue170006ERKS2_RKS3_, symObjAddr: 0x79A8, symBinAddr: 0x10000A5DC, symSize: 0x3C }
  - { offsetInCU: 0x1391D, offset: 0x1BBF3, size: 0x8, addend: 0x0, symName: __ZNSt3__14pairIPKc4boatEC2B8ue170006ERKS2_RKS3_, symObjAddr: 0x79E4, symBinAddr: 0x10000A618, symSize: 0x3C }
  - { offsetInCU: 0x13960, offset: 0x1BC36, size: 0x8, addend: 0x0, symName: __ZNSt3__16__treeINS_12__value_typeINS_12basic_stringIcNS_11char_traitsIcEENS_9allocatorIcEEEE4boatEENS_19__map_value_compareIS7_S9_NS_4lessIS7_EELb1EEENS5_IS9_EEE15__insert_uniqueB8ue170006ERKNS_4pairIKS7_S8_EE, symObjAddr: 0x7A20, symBinAddr: 0x10000A654, symSize: 0x50 }
  - { offsetInCU: 0x13993, offset: 0x1BC69, size: 0x8, addend: 0x0, symName: __ZNSt3__14pairINS_14__map_iteratorINS_15__tree_iteratorINS_12__value_typeINS_12basic_stringIcNS_11char_traitsIcEENS_9allocatorIcEEEE4boatEEPNS_11__tree_nodeISB_PvEElEEEEbEC1B8ue170006ISG_bEERKNS0_IT_T0_EE, symObjAddr: 0x7A70, symBinAddr: 0x10000A6A4, symSize: 0x34 }
  - { offsetInCU: 0x139DB, offset: 0x1BCB1, size: 0x8, addend: 0x0, symName: __ZNSt3__16__treeINS_12__value_typeINS_12basic_stringIcNS_11char_traitsIcEENS_9allocatorIcEEEE4boatEENS_19__map_value_compareIS7_S9_NS_4lessIS7_EELb1EEENS5_IS9_EEE25__emplace_unique_key_argsIS7_JRKNS_4pairIKS7_S8_EEEEENSH_INS_15__tree_iteratorIS9_PNS_11__tree_nodeIS9_PvEElEEbEERKT_DpOT0_, symObjAddr: 0x7AA4, symBinAddr: 0x10000A6D8, symSize: 0xF0 }
  - { offsetInCU: 0x13A87, offset: 0x1BD5D, size: 0x8, addend: 0x0, symName: __ZNSt3__14pairINS_14__map_iteratorINS_15__tree_iteratorINS_12__value_typeINS_12basic_stringIcNS_11char_traitsIcEENS_9allocatorIcEEEE4boatEEPNS_11__tree_nodeISB_PvEElEEEEbEC2B8ue170006ISG_bEERKNS0_IT_T0_EE, symObjAddr: 0x7B94, symBinAddr: 0x10000A7C8, symSize: 0x50 }
  - { offsetInCU: 0x13ACF, offset: 0x1BDA5, size: 0x8, addend: 0x0, symName: __ZNSt3__14pairIKNS_12basic_stringIcNS_11char_traitsIcEENS_9allocatorIcEEEE4boatEC2B8ue170006IPKcS8_EERKNS0_IT_T0_EE, symObjAddr: 0x7BE4, symBinAddr: 0x10000A818, symSize: 0x4C }
  - { offsetInCU: 0x13B17, offset: 0x1BDED, size: 0x8, addend: 0x0, symName: __ZNKSt3__16__treeINS_12__value_typeINS_12basic_stringIcNS_11char_traitsIcEENS_9allocatorIcEEEE6memberEENS_19__map_value_compareIS7_S9_NS_4lessIS7_EELb1EEENS5_IS9_EEE4sizeB8ue170006Ev, symObjAddr: 0x7C30, symBinAddr: 0x10000A864, symSize: 0x28 }
  - { offsetInCU: 0x13B3B, offset: 0x1BE11, size: 0x8, addend: 0x0, symName: __ZNKSt3__117__compressed_pairImNS_19__map_value_compareINS_12basic_stringIcNS_11char_traitsIcEENS_9allocatorIcEEEENS_12__value_typeIS7_6memberEENS_4lessIS7_EELb1EEEE5firstB8ue170006Ev, symObjAddr: 0x7C58, symBinAddr: 0x10000A88C, symSize: 0x24 }
  - { offsetInCU: 0x13B5F, offset: 0x1BE35, size: 0x8, addend: 0x0, symName: __ZNKSt3__16__treeINS_12__value_typeINS_12basic_stringIcNS_11char_traitsIcEENS_9allocatorIcEEEE6memberEENS_19__map_value_compareIS7_S9_NS_4lessIS7_EELb1EEENS5_IS9_EEE8max_sizeB8ue170006Ev, symObjAddr: 0x7C7C, symBinAddr: 0x10000A8B0, symSize: 0x74 }
  - { offsetInCU: 0x13B83, offset: 0x1BE59, size: 0x8, addend: 0x0, symName: __ZNKSt3__16__treeINS_12__value_typeINS_12basic_stringIcNS_11char_traitsIcEENS_9allocatorIcEEEE6memberEENS_19__map_value_compareIS7_S9_NS_4lessIS7_EELb1EEENS5_IS9_EEE12__node_allocB8ue170006Ev, symObjAddr: 0x7CF0, symBinAddr: 0x10000A924, symSize: 0x28 }
  - { offsetInCU: 0x13BA7, offset: 0x1BE7D, size: 0x8, addend: 0x0, symName: __ZNKSt3__117__compressed_pairINS_15__tree_end_nodeIPNS_16__tree_node_baseIPvEEEENS_9allocatorINS_11__tree_nodeINS_12__value_typeINS_12basic_stringIcNS_11char_traitsIcEENS7_IcEEEE6memberEES3_EEEEE6secondB8ue170006Ev, symObjAddr: 0x7D18, symBinAddr: 0x10000A94C, symSize: 0x24 }
  - { offsetInCU: 0x13BCC, offset: 0x1BEA2, size: 0x8, addend: 0x0, symName: __ZNKSt3__122__compressed_pair_elemINS_9allocatorINS_11__tree_nodeINS_12__value_typeINS_12basic_stringIcNS_11char_traitsIcEENS1_IcEEEE6memberEEPvEEEELi1ELb1EE5__getB8ue170006Ev, symObjAddr: 0x7D3C, symBinAddr: 0x10000A970, symSize: 0x14 }
  - { offsetInCU: 0x13BEF, offset: 0x1BEC5, size: 0x8, addend: 0x0, symName: __ZNSt3__16__treeINS_12__value_typeINS_12basic_stringIcNS_11char_traitsIcEENS_9allocatorIcEEEE6memberEENS_19__map_value_compareIS7_S9_NS_4lessIS7_EELb1EEENS5_IS9_EEE4findIS7_EENS_15__tree_iteratorIS9_PNS_11__tree_nodeIS9_PvEElEERKT_, symObjAddr: 0x7D50, symBinAddr: 0x10000A984, symSize: 0xF8 }
  - { offsetInCU: 0x13C3C, offset: 0x1BF12, size: 0x8, addend: 0x0, symName: __ZNSt3__16__treeINS_12__value_typeINS_12basic_stringIcNS_11char_traitsIcEENS_9allocatorIcEEEE6memberEENS_19__map_value_compareIS7_S9_NS_4lessIS7_EELb1EEENS5_IS9_EEE13__lower_boundIS7_EENS_15__tree_iteratorIS9_PNS_11__tree_nodeIS9_PvEElEERKT_SL_PNS_15__tree_end_nodeIPNS_16__tree_node_baseISJ_EEEE, symObjAddr: 0x7E48, symBinAddr: 0x10000AA7C, symSize: 0xA4 }
  - { offsetInCU: 0x13C98, offset: 0x1BF6E, size: 0x8, addend: 0x0, symName: __ZNKSt3__115__tree_iteratorINS_12__value_typeINS_12basic_stringIcNS_11char_traitsIcEENS_9allocatorIcEEEE6memberEEPNS_11__tree_nodeIS9_PvEElEdeB8ue170006Ev, symObjAddr: 0x7F20, symBinAddr: 0x10000AB54, symSize: 0x28 }
  - { offsetInCU: 0x13CBD, offset: 0x1BF93, size: 0x8, addend: 0x0, symName: __ZNKSt3__115__tree_iteratorINS_12__value_typeINS_12basic_stringIcNS_11char_traitsIcEENS_9allocatorIcEEEE6memberEEPNS_11__tree_nodeIS9_PvEElE8__get_npB8ue170006Ev, symObjAddr: 0x7F78, symBinAddr: 0x10000ABAC, symSize: 0x18 }
  - { offsetInCU: 0x13CE0, offset: 0x1BFB6, size: 0x8, addend: 0x0, symName: __ZNSt3__14pairIPKc6memberEC1B8ue170006ERKS2_RKS3_, symObjAddr: 0x7F90, symBinAddr: 0x10000ABC4, symSize: 0x3C }
  - { offsetInCU: 0x13D25, offset: 0x1BFFB, size: 0x8, addend: 0x0, symName: __ZNSt3__14pairIPKc6memberEC2B8ue170006ERKS2_RKS3_, symObjAddr: 0x7FCC, symBinAddr: 0x10000AC00, symSize: 0x3C }
  - { offsetInCU: 0x13D68, offset: 0x1C03E, size: 0x8, addend: 0x0, symName: __ZNSt3__16__treeINS_12__value_typeINS_12basic_stringIcNS_11char_traitsIcEENS_9allocatorIcEEEE6memberEENS_19__map_value_compareIS7_S9_NS_4lessIS7_EELb1EEENS5_IS9_EEE15__insert_uniqueB8ue170006ERKNS_4pairIKS7_S8_EE, symObjAddr: 0x8008, symBinAddr: 0x10000AC3C, symSize: 0x50 }
  - { offsetInCU: 0x13D9B, offset: 0x1C071, size: 0x8, addend: 0x0, symName: __ZNSt3__14pairINS_14__map_iteratorINS_15__tree_iteratorINS_12__value_typeINS_12basic_stringIcNS_11char_traitsIcEENS_9allocatorIcEEEE6memberEEPNS_11__tree_nodeISB_PvEElEEEEbEC1B8ue170006ISG_bEERKNS0_IT_T0_EE, symObjAddr: 0x8058, symBinAddr: 0x10000AC8C, symSize: 0x34 }
  - { offsetInCU: 0x13DE3, offset: 0x1C0B9, size: 0x8, addend: 0x0, symName: __ZNSt3__16__treeINS_12__value_typeINS_12basic_stringIcNS_11char_traitsIcEENS_9allocatorIcEEEE6memberEENS_19__map_value_compareIS7_S9_NS_4lessIS7_EELb1EEENS5_IS9_EEE25__emplace_unique_key_argsIS7_JRKNS_4pairIKS7_S8_EEEEENSH_INS_15__tree_iteratorIS9_PNS_11__tree_nodeIS9_PvEElEEbEERKT_DpOT0_, symObjAddr: 0x808C, symBinAddr: 0x10000ACC0, symSize: 0xF0 }
  - { offsetInCU: 0x13E8F, offset: 0x1C165, size: 0x8, addend: 0x0, symName: __ZNSt3__14pairINS_14__map_iteratorINS_15__tree_iteratorINS_12__value_typeINS_12basic_stringIcNS_11char_traitsIcEENS_9allocatorIcEEEE6memberEEPNS_11__tree_nodeISB_PvEElEEEEbEC2B8ue170006ISG_bEERKNS0_IT_T0_EE, symObjAddr: 0x817C, symBinAddr: 0x10000ADB0, symSize: 0x50 }
  - { offsetInCU: 0x13ED7, offset: 0x1C1AD, size: 0x8, addend: 0x0, symName: __ZNSt3__14pairIKNS_12basic_stringIcNS_11char_traitsIcEENS_9allocatorIcEEEE6memberEC2B8ue170006IPKcS8_EERKNS0_IT_T0_EE, symObjAddr: 0x81CC, symBinAddr: 0x10000AE00, symSize: 0x4C }
  - { offsetInCU: 0x13F1F, offset: 0x1C1F5, size: 0x8, addend: 0x0, symName: __ZNSt3__16vectorINS_12basic_stringIcNS_11char_traitsIcEENS_9allocatorIcEEEENS4_IS6_EEEC2B8ue170006Ev, symObjAddr: 0x8218, symBinAddr: 0x10000AE4C, symSize: 0x44 }
  - { offsetInCU: 0x13F4C, offset: 0x1C222, size: 0x8, addend: 0x0, symName: __ZNSt3__117__compressed_pairIPNS_12basic_stringIcNS_11char_traitsIcEENS_9allocatorIcEEEENS4_IS6_EEEC1B8ue170006IDnNS_18__default_init_tagEEEOT_OT0_, symObjAddr: 0x825C, symBinAddr: 0x10000AE90, symSize: 0x3C }
  - { offsetInCU: 0x13FA2, offset: 0x1C278, size: 0x8, addend: 0x0, symName: __ZNSt3__117__compressed_pairIPNS_12basic_stringIcNS_11char_traitsIcEENS_9allocatorIcEEEENS4_IS6_EEEC2B8ue170006IDnNS_18__default_init_tagEEEOT_OT0_, symObjAddr: 0x8298, symBinAddr: 0x10000AECC, symSize: 0x40 }
  - { offsetInCU: 0x13FF9, offset: 0x1C2CF, size: 0x8, addend: 0x0, symName: __ZNSt3__122__compressed_pair_elemIPNS_12basic_stringIcNS_11char_traitsIcEENS_9allocatorIcEEEELi0ELb0EEC2B8ue170006IDnvEEOT_, symObjAddr: 0x82D8, symBinAddr: 0x10000AF0C, symSize: 0x1C }
  - { offsetInCU: 0x14039, offset: 0x1C30F, size: 0x8, addend: 0x0, symName: __ZNSt3__122__compressed_pair_elemINS_9allocatorINS_12basic_stringIcNS_11char_traitsIcEENS1_IcEEEEEELi1ELb1EEC2B8ue170006ENS_18__default_init_tagE, symObjAddr: 0x82F4, symBinAddr: 0x10000AF28, symSize: 0x2C }
  - { offsetInCU: 0x1406B, offset: 0x1C341, size: 0x8, addend: 0x0, symName: __ZNSt3__19allocatorINS_12basic_stringIcNS_11char_traitsIcEENS0_IcEEEEEC2B8ue170006Ev, symObjAddr: 0x8320, symBinAddr: 0x10000AF54, symSize: 0x2C }
  - { offsetInCU: 0x14094, offset: 0x1C36A, size: 0x8, addend: 0x0, symName: __ZNSt3__116__non_trivial_ifILb1ENS_9allocatorINS_12basic_stringIcNS_11char_traitsIcEENS1_IcEEEEEEEC2B8ue170006Ev, symObjAddr: 0x834C, symBinAddr: 0x10000AF80, symSize: 0x14 }
  - { offsetInCU: 0x140BB, offset: 0x1C391, size: 0x8, addend: 0x0, symName: __ZNSt3__16vectorINS_12basic_stringIcNS_11char_traitsIcEENS_9allocatorIcEEEENS4_IS6_EEED2B8ue170006Ev, symObjAddr: 0x8360, symBinAddr: 0x10000AF94, symSize: 0x3C }
  - { offsetInCU: 0x140E3, offset: 0x1C3B9, size: 0x8, addend: 0x0, symName: __ZNSt3__16vectorINS_12basic_stringIcNS_11char_traitsIcEENS_9allocatorIcEEEENS4_IS6_EEE16__destroy_vectorC1B8ue170006ERS8_, symObjAddr: 0x839C, symBinAddr: 0x10000AFD0, symSize: 0x34 }
  - { offsetInCU: 0x1411A, offset: 0x1C3F0, size: 0x8, addend: 0x0, symName: __ZNSt3__16vectorINS_12basic_stringIcNS_11char_traitsIcEENS_9allocatorIcEEEENS4_IS6_EEE16__destroy_vectorclB8ue170006Ev, symObjAddr: 0x83D0, symBinAddr: 0x10000B004, symSize: 0x90 }
  - { offsetInCU: 0x1413F, offset: 0x1C415, size: 0x8, addend: 0x0, symName: __ZNSt3__16vectorINS_12basic_stringIcNS_11char_traitsIcEENS_9allocatorIcEEEENS4_IS6_EEE16__destroy_vectorC2B8ue170006ERS8_, symObjAddr: 0x8460, symBinAddr: 0x10000B094, symSize: 0x20 }
  - { offsetInCU: 0x14175, offset: 0x1C44B, size: 0x8, addend: 0x0, symName: __ZNSt3__16vectorINS_12basic_stringIcNS_11char_traitsIcEENS_9allocatorIcEEEENS4_IS6_EEE7__clearB8ue170006Ev, symObjAddr: 0x8480, symBinAddr: 0x10000B0B4, symSize: 0x28 }
  - { offsetInCU: 0x14199, offset: 0x1C46F, size: 0x8, addend: 0x0, symName: __ZNKSt3__16vectorINS_12basic_stringIcNS_11char_traitsIcEENS_9allocatorIcEEEENS4_IS6_EEE17__annotate_deleteB8ue170006Ev, symObjAddr: 0x84A8, symBinAddr: 0x10000B0DC, symSize: 0xD4 }
  - { offsetInCU: 0x141BE, offset: 0x1C494, size: 0x8, addend: 0x0, symName: __ZNSt3__116allocator_traitsINS_9allocatorINS_12basic_stringIcNS_11char_traitsIcEENS1_IcEEEEEEE10deallocateB8ue170006ERS7_PS6_m, symObjAddr: 0x857C, symBinAddr: 0x10000B1B0, symSize: 0x34 }
  - { offsetInCU: 0x141FE, offset: 0x1C4D4, size: 0x8, addend: 0x0, symName: __ZNSt3__16vectorINS_12basic_stringIcNS_11char_traitsIcEENS_9allocatorIcEEEENS4_IS6_EEE7__allocB8ue170006Ev, symObjAddr: 0x85B0, symBinAddr: 0x10000B1E4, symSize: 0x28 }
  - { offsetInCU: 0x14222, offset: 0x1C4F8, size: 0x8, addend: 0x0, symName: __ZNKSt3__16vectorINS_12basic_stringIcNS_11char_traitsIcEENS_9allocatorIcEEEENS4_IS6_EEE8capacityB8ue170006Ev, symObjAddr: 0x85D8, symBinAddr: 0x10000B20C, symSize: 0x40 }
  - { offsetInCU: 0x14246, offset: 0x1C51C, size: 0x8, addend: 0x0, symName: __ZNSt3__16vectorINS_12basic_stringIcNS_11char_traitsIcEENS_9allocatorIcEEEENS4_IS6_EEE22__base_destruct_at_endB8ue170006EPS6_, symObjAddr: 0x8618, symBinAddr: 0x10000B24C, symSize: 0xA0 }
  - { offsetInCU: 0x14289, offset: 0x1C55F, size: 0x8, addend: 0x0, symName: __ZNSt3__116allocator_traitsINS_9allocatorINS_12basic_stringIcNS_11char_traitsIcEENS1_IcEEEEEEE7destroyB8ue170006IS6_vEEvRS7_PT_, symObjAddr: 0x86B8, symBinAddr: 0x10000B2EC, symSize: 0x2C }
  - { offsetInCU: 0x142C5, offset: 0x1C59B, size: 0x8, addend: 0x0, symName: __ZNSt3__19allocatorINS_12basic_stringIcNS_11char_traitsIcEENS0_IcEEEEE7destroyB8ue170006EPS5_, symObjAddr: 0x86F8, symBinAddr: 0x10000B32C, symSize: 0x28 }
  - { offsetInCU: 0x142F8, offset: 0x1C5CE, size: 0x8, addend: 0x0, symName: __ZNKSt3__16vectorINS_12basic_stringIcNS_11char_traitsIcEENS_9allocatorIcEEEENS4_IS6_EEE31__annotate_contiguous_containerB8ue170006EPKvSA_SA_SA_, symObjAddr: 0x8720, symBinAddr: 0x10000B354, symSize: 0x20 }
  - { offsetInCU: 0x1434B, offset: 0x1C621, size: 0x8, addend: 0x0, symName: __ZNKSt3__16vectorINS_12basic_stringIcNS_11char_traitsIcEENS_9allocatorIcEEEENS4_IS6_EEE4dataB8ue170006Ev, symObjAddr: 0x8740, symBinAddr: 0x10000B374, symSize: 0x28 }
  - { offsetInCU: 0x14370, offset: 0x1C646, size: 0x8, addend: 0x0, symName: __ZNKSt3__16vectorINS_12basic_stringIcNS_11char_traitsIcEENS_9allocatorIcEEEENS4_IS6_EEE4sizeB8ue170006Ev, symObjAddr: 0x8768, symBinAddr: 0x10000B39C, symSize: 0x28 }
  - { offsetInCU: 0x14393, offset: 0x1C669, size: 0x8, addend: 0x0, symName: __ZNSt3__19allocatorINS_12basic_stringIcNS_11char_traitsIcEENS0_IcEEEEE10deallocateB8ue170006EPS5_m, symObjAddr: 0x8790, symBinAddr: 0x10000B3C4, symSize: 0x74 }
  - { offsetInCU: 0x143D3, offset: 0x1C6A9, size: 0x8, addend: 0x0, symName: __ZNSt3__117__compressed_pairIPNS_12basic_stringIcNS_11char_traitsIcEENS_9allocatorIcEEEENS4_IS6_EEE6secondB8ue170006Ev, symObjAddr: 0x8804, symBinAddr: 0x10000B438, symSize: 0x24 }
  - { offsetInCU: 0x143F8, offset: 0x1C6CE, size: 0x8, addend: 0x0, symName: __ZNSt3__122__compressed_pair_elemINS_9allocatorINS_12basic_stringIcNS_11char_traitsIcEENS1_IcEEEEEELi1ELb1EE5__getB8ue170006Ev, symObjAddr: 0x8828, symBinAddr: 0x10000B45C, symSize: 0x14 }
  - { offsetInCU: 0x1441B, offset: 0x1C6F1, size: 0x8, addend: 0x0, symName: __ZNKSt3__16vectorINS_12basic_stringIcNS_11char_traitsIcEENS_9allocatorIcEEEENS4_IS6_EEE9__end_capB8ue170006Ev, symObjAddr: 0x883C, symBinAddr: 0x10000B470, symSize: 0x28 }
  - { offsetInCU: 0x1443F, offset: 0x1C715, size: 0x8, addend: 0x0, symName: __ZNKSt3__117__compressed_pairIPNS_12basic_stringIcNS_11char_traitsIcEENS_9allocatorIcEEEENS4_IS6_EEE5firstB8ue170006Ev, symObjAddr: 0x8864, symBinAddr: 0x10000B498, symSize: 0x24 }
  - { offsetInCU: 0x14464, offset: 0x1C73A, size: 0x8, addend: 0x0, symName: __ZNKSt3__122__compressed_pair_elemIPNS_12basic_stringIcNS_11char_traitsIcEENS_9allocatorIcEEEELi0ELb0EE5__getB8ue170006Ev, symObjAddr: 0x8888, symBinAddr: 0x10000B4BC, symSize: 0x14 }
  - { offsetInCU: 0x14487, offset: 0x1C75D, size: 0x8, addend: 0x0, symName: __ZNSt3__16vectorINS_12basic_stringIcNS_11char_traitsIcEENS_9allocatorIcEEEENS4_IS6_EEE19__copy_assign_allocB8ue170006ERKS8_, symObjAddr: 0x889C, symBinAddr: 0x10000B4D0, symSize: 0x2C }
  - { offsetInCU: 0x144BA, offset: 0x1C790, size: 0x8, addend: 0x0, symName: __ZNSt3__16vectorINS_12basic_stringIcNS_11char_traitsIcEENS_9allocatorIcEEEENS4_IS6_EEE6assignIPS6_Li0EEEvT_SB_, symObjAddr: 0x88C8, symBinAddr: 0x10000B4FC, symSize: 0x5C }
  - { offsetInCU: 0x1450F, offset: 0x1C7E5, size: 0x8, addend: 0x0, symName: __ZNSt3__16vectorINS_12basic_stringIcNS_11char_traitsIcEENS_9allocatorIcEEEENS4_IS6_EEE19__copy_assign_allocB8ue170006ERKS8_NS_17integral_constantIbLb0EEE, symObjAddr: 0x8924, symBinAddr: 0x10000B558, symSize: 0x14 }
  - { offsetInCU: 0x1454A, offset: 0x1C820, size: 0x8, addend: 0x0, symName: __ZNSt3__16vectorINS_12basic_stringIcNS_11char_traitsIcEENS_9allocatorIcEEEENS4_IS6_EEE18__assign_with_sizeB8ue170006IPS6_SA_EEvT_T0_l, symObjAddr: 0x8938, symBinAddr: 0x10000B56C, symSize: 0x164 }
  - { offsetInCU: 0x145F8, offset: 0x1C8CE, size: 0x8, addend: 0x0, symName: __ZNSt3__16vectorINS_12basic_stringIcNS_11char_traitsIcEENS_9allocatorIcEEEENS4_IS6_EEE18__construct_at_endIPS6_SA_EEvT_T0_m, symObjAddr: 0x8B3C, symBinAddr: 0x10000B770, symSize: 0x94 }
  - { offsetInCU: 0x1466C, offset: 0x1C942, size: 0x8, addend: 0x0, symName: __ZNSt3__16vectorINS_12basic_stringIcNS_11char_traitsIcEENS_9allocatorIcEEEENS4_IS6_EEE17__destruct_at_endB8ue170006EPS6_, symObjAddr: 0x8C14, symBinAddr: 0x10000B848, symSize: 0x4C }
  - { offsetInCU: 0x146AE, offset: 0x1C984, size: 0x8, addend: 0x0, symName: __ZNSt3__16vectorINS_12basic_stringIcNS_11char_traitsIcEENS_9allocatorIcEEEENS4_IS6_EEE13__vdeallocateEv, symObjAddr: 0x8C60, symBinAddr: 0x10000B894, symSize: 0x94 }
  - { offsetInCU: 0x146D4, offset: 0x1C9AA, size: 0x8, addend: 0x0, symName: __ZNSt3__16vectorINS_12basic_stringIcNS_11char_traitsIcEENS_9allocatorIcEEEENS4_IS6_EEE11__vallocateB8ue170006Em, symObjAddr: 0x8CF4, symBinAddr: 0x10000B928, symSize: 0xB4 }
  - { offsetInCU: 0x14716, offset: 0x1C9EC, size: 0x8, addend: 0x0, symName: __ZNKSt3__16vectorINS_12basic_stringIcNS_11char_traitsIcEENS_9allocatorIcEEEENS4_IS6_EEE11__recommendB8ue170006Em, symObjAddr: 0x8DA8, symBinAddr: 0x10000B9DC, symSize: 0xB4 }
  - { offsetInCU: 0x14782, offset: 0x1CA58, size: 0x8, addend: 0x0, symName: __ZNSt3__16vectorINS_12basic_stringIcNS_11char_traitsIcEENS_9allocatorIcEEEENS4_IS6_EEE21_ConstructTransactionC1B8ue170006ERS8_m, symObjAddr: 0x8EC4, symBinAddr: 0x10000BAF8, symSize: 0x3C }
  - { offsetInCU: 0x147C8, offset: 0x1CA9E, size: 0x8, addend: 0x0, symName: __ZNSt3__16vectorINS_12basic_stringIcNS_11char_traitsIcEENS_9allocatorIcEEEENS4_IS6_EEE21_ConstructTransactionD1B8ue170006Ev, symObjAddr: 0x8F80, symBinAddr: 0x10000BBB4, symSize: 0x2C }
  - { offsetInCU: 0x147F1, offset: 0x1CAC7, size: 0x8, addend: 0x0, symName: __ZNSt3__16vectorINS_12basic_stringIcNS_11char_traitsIcEENS_9allocatorIcEEEENS4_IS6_EEE21_ConstructTransactionC2B8ue170006ERS8_m, symObjAddr: 0x8FAC, symBinAddr: 0x10000BBE0, symSize: 0x4C }
  - { offsetInCU: 0x1484F, offset: 0x1CB25, size: 0x8, addend: 0x0, symName: __ZNSt3__14pairIPNS_12basic_stringIcNS_11char_traitsIcEENS_9allocatorIcEEEES7_EC1B8ue170006ERKS7_SA_, symObjAddr: 0x9200, symBinAddr: 0x10000BE34, symSize: 0x3C }
  - { offsetInCU: 0x14894, offset: 0x1CB6A, size: 0x8, addend: 0x0, symName: __ZNSt3__14pairIPNS_12basic_stringIcNS_11char_traitsIcEENS_9allocatorIcEEEES7_EC2B8ue170006ERKS7_SA_, symObjAddr: 0x923C, symBinAddr: 0x10000BE70, symSize: 0x34 }
  - { offsetInCU: 0x148D7, offset: 0x1CBAD, size: 0x8, addend: 0x0, symName: __ZNSt3__129_AllocatorDestroyRangeReverseINS_9allocatorINS_12basic_stringIcNS_11char_traitsIcEENS1_IcEEEEEEPS6_EC1B8ue170006ERS7_RS8_SB_, symObjAddr: 0x92BC, symBinAddr: 0x10000BEF0, symSize: 0x44 }
  - { offsetInCU: 0x1492D, offset: 0x1CC03, size: 0x8, addend: 0x0, symName: __ZNSt3__116allocator_traitsINS_9allocatorINS_12basic_stringIcNS_11char_traitsIcEENS1_IcEEEEEEE9constructB8ue170006IS6_JRS6_EvEEvRS7_PT_DpOT0_, symObjAddr: 0x9300, symBinAddr: 0x10000BF34, symSize: 0x34 }
  - { offsetInCU: 0x14986, offset: 0x1CC5C, size: 0x8, addend: 0x0, symName: __ZNSt3__128__exception_guard_exceptionsINS_29_AllocatorDestroyRangeReverseINS_9allocatorINS_12basic_stringIcNS_11char_traitsIcEENS2_IcEEEEEEPS7_EEE10__completeB8ue170006Ev, symObjAddr: 0x9334, symBinAddr: 0x10000BF68, symSize: 0x1C }
  - { offsetInCU: 0x149A9, offset: 0x1CC7F, size: 0x8, addend: 0x0, symName: __ZNSt3__128__exception_guard_exceptionsINS_29_AllocatorDestroyRangeReverseINS_9allocatorINS_12basic_stringIcNS_11char_traitsIcEENS2_IcEEEEEEPS7_EEED1B8ue170006Ev, symObjAddr: 0x9350, symBinAddr: 0x10000BF84, symSize: 0x2C }
  - { offsetInCU: 0x149D1, offset: 0x1CCA7, size: 0x8, addend: 0x0, symName: __ZNSt3__128__exception_guard_exceptionsINS_29_AllocatorDestroyRangeReverseINS_9allocatorINS_12basic_stringIcNS_11char_traitsIcEENS2_IcEEEEEEPS7_EEEC1B8ue170006ESA_, symObjAddr: 0x937C, symBinAddr: 0x10000BFB0, symSize: 0x34 }
  - { offsetInCU: 0x14A09, offset: 0x1CCDF, size: 0x8, addend: 0x0, symName: __ZNSt3__128__exception_guard_exceptionsINS_29_AllocatorDestroyRangeReverseINS_9allocatorINS_12basic_stringIcNS_11char_traitsIcEENS2_IcEEEEEEPS7_EEEC2B8ue170006ESA_, symObjAddr: 0x93B0, symBinAddr: 0x10000BFE4, symSize: 0x30 }
  - { offsetInCU: 0x14A40, offset: 0x1CD16, size: 0x8, addend: 0x0, symName: __ZNSt3__129_AllocatorDestroyRangeReverseINS_9allocatorINS_12basic_stringIcNS_11char_traitsIcEENS1_IcEEEEEEPS6_EC2B8ue170006ERS7_RS8_SB_, symObjAddr: 0x93E0, symBinAddr: 0x10000C014, symSize: 0x38 }
  - { offsetInCU: 0x14A94, offset: 0x1CD6A, size: 0x8, addend: 0x0, symName: __ZNSt3__19allocatorINS_12basic_stringIcNS_11char_traitsIcEENS0_IcEEEEE9constructB8ue170006IS5_JRS5_EEEvPT_DpOT0_, symObjAddr: 0x9418, symBinAddr: 0x10000C04C, symSize: 0x30 }
  - { offsetInCU: 0x14AEA, offset: 0x1CDC0, size: 0x8, addend: 0x0, symName: __ZNSt3__128__exception_guard_exceptionsINS_29_AllocatorDestroyRangeReverseINS_9allocatorINS_12basic_stringIcNS_11char_traitsIcEENS2_IcEEEEEEPS7_EEED2B8ue170006Ev, symObjAddr: 0x9448, symBinAddr: 0x10000C07C, symSize: 0x48 }
  - { offsetInCU: 0x14B12, offset: 0x1CDE8, size: 0x8, addend: 0x0, symName: __ZNKSt3__129_AllocatorDestroyRangeReverseINS_9allocatorINS_12basic_stringIcNS_11char_traitsIcEENS1_IcEEEEEEPS6_EclB8ue170006Ev, symObjAddr: 0x9490, symBinAddr: 0x10000C0C4, symSize: 0x68 }
  - { offsetInCU: 0x14B36, offset: 0x1CE0C, size: 0x8, addend: 0x0, symName: __ZNSt3__116reverse_iteratorIPNS_12basic_stringIcNS_11char_traitsIcEENS_9allocatorIcEEEEEC1B8ue170006ES7_, symObjAddr: 0x9568, symBinAddr: 0x10000C19C, symSize: 0x34 }
  - { offsetInCU: 0x14B6D, offset: 0x1CE43, size: 0x8, addend: 0x0, symName: __ZNSt3__116reverse_iteratorIPNS_12basic_stringIcNS_11char_traitsIcEENS_9allocatorIcEEEEEppB8ue170006Ev, symObjAddr: 0x9608, symBinAddr: 0x10000C23C, symSize: 0x20 }
  - { offsetInCU: 0x14B91, offset: 0x1CE67, size: 0x8, addend: 0x0, symName: __ZNKSt3__116reverse_iteratorIPNS_12basic_stringIcNS_11char_traitsIcEENS_9allocatorIcEEEEE4baseB8ue170006Ev, symObjAddr: 0x9628, symBinAddr: 0x10000C25C, symSize: 0x18 }
  - { offsetInCU: 0x14BBA, offset: 0x1CE90, size: 0x8, addend: 0x0, symName: __ZNSt3__119__to_address_helperINS_16reverse_iteratorIPNS_12basic_stringIcNS_11char_traitsIcEENS_9allocatorIcEEEEEEvE6__callB8ue170006ERKS9_, symObjAddr: 0x9640, symBinAddr: 0x10000C274, symSize: 0x4C }
  - { offsetInCU: 0x14BDB, offset: 0x1CEB1, size: 0x8, addend: 0x0, symName: __ZNKSt3__116reverse_iteratorIPNS_12basic_stringIcNS_11char_traitsIcEENS_9allocatorIcEEEEEptB8ue170006Ev, symObjAddr: 0x968C, symBinAddr: 0x10000C2C0, symSize: 0x24 }
  - { offsetInCU: 0x14C00, offset: 0x1CED6, size: 0x8, addend: 0x0, symName: __ZNKSt3__116reverse_iteratorIPNS_12basic_stringIcNS_11char_traitsIcEENS_9allocatorIcEEEEEdeB8ue170006Ev, symObjAddr: 0x96B0, symBinAddr: 0x10000C2E4, symSize: 0x28 }
  - { offsetInCU: 0x14C32, offset: 0x1CF08, size: 0x8, addend: 0x0, symName: __ZNSt3__116reverse_iteratorIPNS_12basic_stringIcNS_11char_traitsIcEENS_9allocatorIcEEEEEC2B8ue170006ES7_, symObjAddr: 0x96D8, symBinAddr: 0x10000C30C, symSize: 0x28 }
  - { offsetInCU: 0x14C68, offset: 0x1CF3E, size: 0x8, addend: 0x0, symName: __ZNSt3__118__unwrap_iter_implIPNS_12basic_stringIcNS_11char_traitsIcEENS_9allocatorIcEEEELb1EE8__unwrapB8ue170006ES7_, symObjAddr: 0x9700, symBinAddr: 0x10000C334, symSize: 0x24 }
  - { offsetInCU: 0x14C8A, offset: 0x1CF60, size: 0x8, addend: 0x0, symName: __ZNSt3__118__unwrap_iter_implIPNS_12basic_stringIcNS_11char_traitsIcEENS_9allocatorIcEEEELb1EE8__rewrapB8ue170006ES7_S7_, symObjAddr: 0x9724, symBinAddr: 0x10000C358, symSize: 0x58 }
  - { offsetInCU: 0x14CBA, offset: 0x1CF90, size: 0x8, addend: 0x0, symName: __ZNSt3__16vectorINS_12basic_stringIcNS_11char_traitsIcEENS_9allocatorIcEEEENS4_IS6_EEE21_ConstructTransactionD2B8ue170006Ev, symObjAddr: 0x977C, symBinAddr: 0x10000C3B0, symSize: 0x20 }
  - { offsetInCU: 0x14CEB, offset: 0x1CFC1, size: 0x8, addend: 0x0, symName: __ZNKSt3__111__copy_loopINS_17_ClassicAlgPolicyEEclB8ue170006IPNS_12basic_stringIcNS_11char_traitsIcEENS_9allocatorIcEEEESA_SA_EENS_4pairIT_T1_EESC_T0_SD_, symObjAddr: 0x9894, symBinAddr: 0x10000C4C8, symSize: 0x88 }
  - { offsetInCU: 0x14D54, offset: 0x1D02A, size: 0x8, addend: 0x0, symName: __ZNKSt3__16vectorINS_12basic_stringIcNS_11char_traitsIcEENS_9allocatorIcEEEENS4_IS6_EEE17__annotate_shrinkB8ue170006Em, symObjAddr: 0x9948, symBinAddr: 0x10000C57C, symSize: 0xD0 }
  - { offsetInCU: 0x14D87, offset: 0x1D05D, size: 0x8, addend: 0x0, symName: __ZNSt3__16vectorINS_12basic_stringIcNS_11char_traitsIcEENS_9allocatorIcEEEENS4_IS6_EEE5clearB8ue170006Ev, symObjAddr: 0x9A18, symBinAddr: 0x10000C64C, symSize: 0x44 }
  - { offsetInCU: 0x14DBA, offset: 0x1D090, size: 0x8, addend: 0x0, symName: __ZNSt3__16vectorINS_12basic_stringIcNS_11char_traitsIcEENS_9allocatorIcEEEENS4_IS6_EEE9__end_capB8ue170006Ev, symObjAddr: 0x9A5C, symBinAddr: 0x10000C690, symSize: 0x28 }
  - { offsetInCU: 0x14DDE, offset: 0x1D0B4, size: 0x8, addend: 0x0, symName: __ZNSt3__117__compressed_pairIPNS_12basic_stringIcNS_11char_traitsIcEENS_9allocatorIcEEEENS4_IS6_EEE5firstB8ue170006Ev, symObjAddr: 0x9A84, symBinAddr: 0x10000C6B8, symSize: 0x24 }
  - { offsetInCU: 0x14E03, offset: 0x1D0D9, size: 0x8, addend: 0x0, symName: __ZNSt3__122__compressed_pair_elemIPNS_12basic_stringIcNS_11char_traitsIcEENS_9allocatorIcEEEELi0ELb0EE5__getB8ue170006Ev, symObjAddr: 0x9AA8, symBinAddr: 0x10000C6DC, symSize: 0x14 }
  - { offsetInCU: 0x14E26, offset: 0x1D0FC, size: 0x8, addend: 0x0, symName: __ZNKSt3__16vectorINS_12basic_stringIcNS_11char_traitsIcEENS_9allocatorIcEEEENS4_IS6_EEE8max_sizeEv, symObjAddr: 0x9ABC, symBinAddr: 0x10000C6F0, symSize: 0x74 }
  - { offsetInCU: 0x14E4C, offset: 0x1D122, size: 0x8, addend: 0x0, symName: __ZNKSt3__16vectorINS_12basic_stringIcNS_11char_traitsIcEENS_9allocatorIcEEEENS4_IS6_EEE20__throw_length_errorB8ue170006Ev, symObjAddr: 0x9B30, symBinAddr: 0x10000C764, symSize: 0x1C }
  - { offsetInCU: 0x14E70, offset: 0x1D146, size: 0x8, addend: 0x0, symName: __ZNKSt3__16vectorINS_12basic_stringIcNS_11char_traitsIcEENS_9allocatorIcEEEENS4_IS6_EEE14__annotate_newB8ue170006Em, symObjAddr: 0x9B8C, symBinAddr: 0x10000C7C0, symSize: 0xC8 }
  - { offsetInCU: 0x14EAE, offset: 0x1D184, size: 0x8, addend: 0x0, symName: __ZNSt3__116allocator_traitsINS_9allocatorINS_12basic_stringIcNS_11char_traitsIcEENS1_IcEEEEEEE8max_sizeB8ue170006IS7_vEEmRKS7_, symObjAddr: 0x9C54, symBinAddr: 0x10000C888, symSize: 0x24 }
  - { offsetInCU: 0x14EDB, offset: 0x1D1B1, size: 0x8, addend: 0x0, symName: __ZNKSt3__16vectorINS_12basic_stringIcNS_11char_traitsIcEENS_9allocatorIcEEEENS4_IS6_EEE7__allocB8ue170006Ev, symObjAddr: 0x9C78, symBinAddr: 0x10000C8AC, symSize: 0x28 }
  - { offsetInCU: 0x14F00, offset: 0x1D1D6, size: 0x8, addend: 0x0, symName: __ZNKSt3__19allocatorINS_12basic_stringIcNS_11char_traitsIcEENS0_IcEEEEE8max_sizeB8ue170006Ev, symObjAddr: 0x9CA0, symBinAddr: 0x10000C8D4, symSize: 0x18 }
  - { offsetInCU: 0x14F23, offset: 0x1D1F9, size: 0x8, addend: 0x0, symName: __ZNKSt3__117__compressed_pairIPNS_12basic_stringIcNS_11char_traitsIcEENS_9allocatorIcEEEENS4_IS6_EEE6secondB8ue170006Ev, symObjAddr: 0x9CB8, symBinAddr: 0x10000C8EC, symSize: 0x24 }
  - { offsetInCU: 0x14F48, offset: 0x1D21E, size: 0x8, addend: 0x0, symName: __ZNKSt3__122__compressed_pair_elemINS_9allocatorINS_12basic_stringIcNS_11char_traitsIcEENS1_IcEEEEEELi1ELb1EE5__getB8ue170006Ev, symObjAddr: 0x9CDC, symBinAddr: 0x10000C910, symSize: 0x14 }
  - { offsetInCU: 0x14F6B, offset: 0x1D241, size: 0x8, addend: 0x0, symName: __ZNSt12length_errorC1B8ue170006EPKc, symObjAddr: 0x9D54, symBinAddr: 0x10000C988, symSize: 0x34 }
  - { offsetInCU: 0x14FA1, offset: 0x1D277, size: 0x8, addend: 0x0, symName: __ZNSt12length_errorC2B8ue170006EPKc, symObjAddr: 0x9D88, symBinAddr: 0x10000C9BC, symSize: 0x4C }
  - { offsetInCU: 0x14FD7, offset: 0x1D2AD, size: 0x8, addend: 0x0, symName: __ZNSt3__19allocatorINS_12basic_stringIcNS_11char_traitsIcEENS0_IcEEEEE8allocateB8ue170006Em, symObjAddr: 0x9DD4, symBinAddr: 0x10000CA08, symSize: 0x8C }
  - { offsetInCU: 0x15009, offset: 0x1D2DF, size: 0x8, addend: 0x0, symName: __ZNSt3__13mapINS_12basic_stringIcNS_11char_traitsIcEENS_9allocatorIcEEEE4boatNS_4lessIS6_EENS4_INS_4pairIKS6_S7_EEEEE25__construct_node_with_keyERSB_, symObjAddr: 0x9F08, symBinAddr: 0x10000CB3C, symSize: 0x144 }
  - { offsetInCU: 0x1505D, offset: 0x1D333, size: 0x8, addend: 0x0, symName: __ZNKSt3__110unique_ptrINS_11__tree_nodeINS_12__value_typeINS_12basic_stringIcNS_11char_traitsIcEENS_9allocatorIcEEEE4boatEEPvEENS_21__map_node_destructorINS6_ISC_EEEEE3getB8ue170006Ev, symObjAddr: 0xA04C, symBinAddr: 0x10000CC80, symSize: 0x28 }
  - { offsetInCU: 0x15081, offset: 0x1D357, size: 0x8, addend: 0x0, symName: __ZNSt3__110unique_ptrINS_11__tree_nodeINS_12__value_typeINS_12basic_stringIcNS_11char_traitsIcEENS_9allocatorIcEEEE4boatEEPvEENS_21__map_node_destructorINS6_ISC_EEEEE7releaseB8ue170006Ev, symObjAddr: 0xA074, symBinAddr: 0x10000CCA8, symSize: 0x44 }
  - { offsetInCU: 0x150B4, offset: 0x1D38A, size: 0x8, addend: 0x0, symName: __ZNSt3__110unique_ptrINS_11__tree_nodeINS_12__value_typeINS_12basic_stringIcNS_11char_traitsIcEENS_9allocatorIcEEEE4boatEEPvEENS_21__map_node_destructorINS6_ISC_EEEEED1B8ue170006Ev, symObjAddr: 0xA0B8, symBinAddr: 0x10000CCEC, symSize: 0x2C }
  - { offsetInCU: 0x150DC, offset: 0x1D3B2, size: 0x8, addend: 0x0, symName: __ZNSt3__121__map_node_destructorINS_9allocatorINS_11__tree_nodeINS_12__value_typeINS_12basic_stringIcNS_11char_traitsIcEENS1_IcEEEE4boatEEPvEEEEEC1B8ue170006ERSD_, symObjAddr: 0xA0E4, symBinAddr: 0x10000CD18, symSize: 0x34 }
  - { offsetInCU: 0x15118, offset: 0x1D3EE, size: 0x8, addend: 0x0, symName: __ZNSt3__110unique_ptrINS_11__tree_nodeINS_12__value_typeINS_12basic_stringIcNS_11char_traitsIcEENS_9allocatorIcEEEE4boatEEPvEENS_21__map_node_destructorINS6_ISC_EEEEEC1B8ue170006ILb1EvEEPSC_NS_16__dependent_typeINS_27__unique_ptr_deleter_sfinaeISF_EEXT_EE20__good_rval_ref_typeE, symObjAddr: 0xA118, symBinAddr: 0x10000CD4C, symSize: 0x3C }
  - { offsetInCU: 0x15169, offset: 0x1D43F, size: 0x8, addend: 0x0, symName: __ZNSt3__116allocator_traitsINS_9allocatorINS_11__tree_nodeINS_12__value_typeINS_12basic_stringIcNS_11char_traitsIcEENS1_IcEEEE4boatEEPvEEEEE9constructB8ue170006IKS8_JRSG_EvEEvRSD_PT_DpOT0_, symObjAddr: 0xA154, symBinAddr: 0x10000CD88, symSize: 0x34 }
  - { offsetInCU: 0x151C1, offset: 0x1D497, size: 0x8, addend: 0x0, symName: __ZNKSt3__110unique_ptrINS_11__tree_nodeINS_12__value_typeINS_12basic_stringIcNS_11char_traitsIcEENS_9allocatorIcEEEE4boatEEPvEENS_21__map_node_destructorINS6_ISC_EEEEEptB8ue170006Ev, symObjAddr: 0xA188, symBinAddr: 0x10000CDBC, symSize: 0x28 }
  - { offsetInCU: 0x151E5, offset: 0x1D4BB, size: 0x8, addend: 0x0, symName: __ZNSt3__110unique_ptrINS_11__tree_nodeINS_12__value_typeINS_12basic_stringIcNS_11char_traitsIcEENS_9allocatorIcEEEE4boatEEPvEENS_21__map_node_destructorINS6_ISC_EEEEE11get_deleterB8ue170006Ev, symObjAddr: 0xA1B0, symBinAddr: 0x10000CDE4, symSize: 0x24 }
  - { offsetInCU: 0x1520F, offset: 0x1D4E5, size: 0x8, addend: 0x0, symName: __ZNSt3__116allocator_traitsINS_9allocatorINS_11__tree_nodeINS_12__value_typeINS_12basic_stringIcNS_11char_traitsIcEENS1_IcEEEE4boatEEPvEEEEE9constructB8ue170006IS9_JEvEEvRSD_PT_DpOT0_, symObjAddr: 0xA1D4, symBinAddr: 0x10000CE08, symSize: 0x2C }
  - { offsetInCU: 0x15252, offset: 0x1D528, size: 0x8, addend: 0x0, symName: __ZNSt3__121__map_node_destructorINS_9allocatorINS_11__tree_nodeINS_12__value_typeINS_12basic_stringIcNS_11char_traitsIcEENS1_IcEEEE4boatEEPvEEEEEC2B8ue170006ERSD_, symObjAddr: 0xA200, symBinAddr: 0x10000CE34, symSize: 0x28 }
  - { offsetInCU: 0x15288, offset: 0x1D55E, size: 0x8, addend: 0x0, symName: __ZNSt3__110unique_ptrINS_11__tree_nodeINS_12__value_typeINS_12basic_stringIcNS_11char_traitsIcEENS_9allocatorIcEEEE4boatEEPvEENS_21__map_node_destructorINS6_ISC_EEEEEC2B8ue170006ILb1EvEEPSC_NS_16__dependent_typeINS_27__unique_ptr_deleter_sfinaeISF_EEXT_EE20__good_rval_ref_typeE, symObjAddr: 0xA228, symBinAddr: 0x10000CE5C, symSize: 0x5C }
  - { offsetInCU: 0x152D8, offset: 0x1D5AE, size: 0x8, addend: 0x0, symName: __ZNSt3__117__compressed_pairIPNS_11__tree_nodeINS_12__value_typeINS_12basic_stringIcNS_11char_traitsIcEENS_9allocatorIcEEEE4boatEEPvEENS_21__map_node_destructorINS6_ISC_EEEEEC1B8ue170006IRSD_SG_EEOT_OT0_, symObjAddr: 0xA284, symBinAddr: 0x10000CEB8, symSize: 0x3C }
  - { offsetInCU: 0x1532E, offset: 0x1D604, size: 0x8, addend: 0x0, symName: __ZNSt3__117__compressed_pairIPNS_11__tree_nodeINS_12__value_typeINS_12basic_stringIcNS_11char_traitsIcEENS_9allocatorIcEEEE4boatEEPvEENS_21__map_node_destructorINS6_ISC_EEEEEC2B8ue170006IRSD_SG_EEOT_OT0_, symObjAddr: 0xA2C0, symBinAddr: 0x10000CEF4, symSize: 0x48 }
  - { offsetInCU: 0x15385, offset: 0x1D65B, size: 0x8, addend: 0x0, symName: __ZNSt3__122__compressed_pair_elemINS_21__map_node_destructorINS_9allocatorINS_11__tree_nodeINS_12__value_typeINS_12basic_stringIcNS_11char_traitsIcEENS2_IcEEEE4boatEEPvEEEEEELi1ELb0EEC2B8ue170006ISF_vEEOT_, symObjAddr: 0xA308, symBinAddr: 0x10000CF3C, symSize: 0x24 }
  - { offsetInCU: 0x153C5, offset: 0x1D69B, size: 0x8, addend: 0x0, symName: __ZNSt3__19allocatorINS_11__tree_nodeINS_12__value_typeINS_12basic_stringIcNS_11char_traitsIcEENS0_IcEEEE4boatEEPvEEE9constructB8ue170006IKS7_JRSE_EEEvPT_DpOT0_, symObjAddr: 0xA32C, symBinAddr: 0x10000CF60, symSize: 0x30 }
  - { offsetInCU: 0x1541B, offset: 0x1D6F1, size: 0x8, addend: 0x0, symName: __ZNKSt3__117__compressed_pairIPNS_11__tree_nodeINS_12__value_typeINS_12basic_stringIcNS_11char_traitsIcEENS_9allocatorIcEEEE4boatEEPvEENS_21__map_node_destructorINS6_ISC_EEEEE5firstB8ue170006Ev, symObjAddr: 0xA35C, symBinAddr: 0x10000CF90, symSize: 0x24 }
  - { offsetInCU: 0x1543F, offset: 0x1D715, size: 0x8, addend: 0x0, symName: __ZNSt3__117__compressed_pairIPNS_11__tree_nodeINS_12__value_typeINS_12basic_stringIcNS_11char_traitsIcEENS_9allocatorIcEEEE4boatEEPvEENS_21__map_node_destructorINS6_ISC_EEEEE6secondB8ue170006Ev, symObjAddr: 0xA380, symBinAddr: 0x10000CFB4, symSize: 0x28 }
  - { offsetInCU: 0x15464, offset: 0x1D73A, size: 0x8, addend: 0x0, symName: __ZNSt3__122__compressed_pair_elemINS_21__map_node_destructorINS_9allocatorINS_11__tree_nodeINS_12__value_typeINS_12basic_stringIcNS_11char_traitsIcEENS2_IcEEEE4boatEEPvEEEEEELi1ELb0EE5__getB8ue170006Ev, symObjAddr: 0xA3A8, symBinAddr: 0x10000CFDC, symSize: 0x14 }
  - { offsetInCU: 0x15488, offset: 0x1D75E, size: 0x8, addend: 0x0, symName: __ZNSt3__19allocatorINS_11__tree_nodeINS_12__value_typeINS_12basic_stringIcNS_11char_traitsIcEENS0_IcEEEE4boatEEPvEEE9constructB8ue170006IS8_JEEEvPT_DpOT0_, symObjAddr: 0xA3BC, symBinAddr: 0x10000CFF0, symSize: 0x24 }
  - { offsetInCU: 0x154C8, offset: 0x1D79E, size: 0x8, addend: 0x0, symName: __ZNSt3__117__compressed_pairIPNS_11__tree_nodeINS_12__value_typeINS_12basic_stringIcNS_11char_traitsIcEENS_9allocatorIcEEEE4boatEEPvEENS_21__map_node_destructorINS6_ISC_EEEEE5firstB8ue170006Ev, symObjAddr: 0xA3E0, symBinAddr: 0x10000D014, symSize: 0x24 }
  - { offsetInCU: 0x154EC, offset: 0x1D7C2, size: 0x8, addend: 0x0, symName: __ZNSt3__110unique_ptrINS_11__tree_nodeINS_12__value_typeINS_12basic_stringIcNS_11char_traitsIcEENS_9allocatorIcEEEE4boatEEPvEENS_21__map_node_destructorINS6_ISC_EEEEED2B8ue170006Ev, symObjAddr: 0xA404, symBinAddr: 0x10000D038, symSize: 0x30 }
  - { offsetInCU: 0x15514, offset: 0x1D7EA, size: 0x8, addend: 0x0, symName: __ZNSt3__110unique_ptrINS_11__tree_nodeINS_12__value_typeINS_12basic_stringIcNS_11char_traitsIcEENS_9allocatorIcEEEE4boatEEPvEENS_21__map_node_destructorINS6_ISC_EEEEE5resetB8ue170006EPSC_, symObjAddr: 0xA434, symBinAddr: 0x10000D068, symSize: 0x78 }
  - { offsetInCU: 0x15556, offset: 0x1D82C, size: 0x8, addend: 0x0, symName: __ZNSt3__121__map_node_destructorINS_9allocatorINS_11__tree_nodeINS_12__value_typeINS_12basic_stringIcNS_11char_traitsIcEENS1_IcEEEE4boatEEPvEEEEEclB8ue170006EPSC_, symObjAddr: 0xA4AC, symBinAddr: 0x10000D0E0, symSize: 0xE4 }
  - { offsetInCU: 0x1558A, offset: 0x1D860, size: 0x8, addend: 0x0, symName: __ZNSt3__116allocator_traitsINS_9allocatorINS_11__tree_nodeINS_12__value_typeINS_12basic_stringIcNS_11char_traitsIcEENS1_IcEEEE4boatEEPvEEEEE7destroyB8ue170006IS9_vvEEvRSD_PT_, symObjAddr: 0xA590, symBinAddr: 0x10000D1C4, symSize: 0x14 }
  - { offsetInCU: 0x155C7, offset: 0x1D89D, size: 0x8, addend: 0x0, symName: __ZNSt3__116allocator_traitsINS_9allocatorINS_11__tree_nodeINS_12__value_typeINS_12basic_stringIcNS_11char_traitsIcEENS1_IcEEEE4boatEEPvEEEEE7destroyB8ue170006IKS8_vvEEvRSD_PT_, symObjAddr: 0xA5A4, symBinAddr: 0x10000D1D8, symSize: 0x28 }
  - { offsetInCU: 0x15602, offset: 0x1D8D8, size: 0x8, addend: 0x0, symName: __ZNSt3__13mapINS_12basic_stringIcNS_11char_traitsIcEENS_9allocatorIcEEEE6memberNS_4lessIS6_EENS4_INS_4pairIKS6_S7_EEEEE25__construct_node_with_keyERSB_, symObjAddr: 0xA5CC, symBinAddr: 0x10000D200, symSize: 0x144 }
  - { offsetInCU: 0x15656, offset: 0x1D92C, size: 0x8, addend: 0x0, symName: __ZNKSt3__110unique_ptrINS_11__tree_nodeINS_12__value_typeINS_12basic_stringIcNS_11char_traitsIcEENS_9allocatorIcEEEE6memberEEPvEENS_21__map_node_destructorINS6_ISC_EEEEE3getB8ue170006Ev, symObjAddr: 0xA710, symBinAddr: 0x10000D344, symSize: 0x28 }
  - { offsetInCU: 0x1567A, offset: 0x1D950, size: 0x8, addend: 0x0, symName: __ZNSt3__110unique_ptrINS_11__tree_nodeINS_12__value_typeINS_12basic_stringIcNS_11char_traitsIcEENS_9allocatorIcEEEE6memberEEPvEENS_21__map_node_destructorINS6_ISC_EEEEE7releaseB8ue170006Ev, symObjAddr: 0xA738, symBinAddr: 0x10000D36C, symSize: 0x44 }
  - { offsetInCU: 0x156AD, offset: 0x1D983, size: 0x8, addend: 0x0, symName: __ZNSt3__110unique_ptrINS_11__tree_nodeINS_12__value_typeINS_12basic_stringIcNS_11char_traitsIcEENS_9allocatorIcEEEE6memberEEPvEENS_21__map_node_destructorINS6_ISC_EEEEED1B8ue170006Ev, symObjAddr: 0xA77C, symBinAddr: 0x10000D3B0, symSize: 0x2C }
  - { offsetInCU: 0x156D5, offset: 0x1D9AB, size: 0x8, addend: 0x0, symName: __ZNSt3__121__map_node_destructorINS_9allocatorINS_11__tree_nodeINS_12__value_typeINS_12basic_stringIcNS_11char_traitsIcEENS1_IcEEEE6memberEEPvEEEEEC1B8ue170006ERSD_, symObjAddr: 0xA7A8, symBinAddr: 0x10000D3DC, symSize: 0x34 }
  - { offsetInCU: 0x15711, offset: 0x1D9E7, size: 0x8, addend: 0x0, symName: __ZNSt3__110unique_ptrINS_11__tree_nodeINS_12__value_typeINS_12basic_stringIcNS_11char_traitsIcEENS_9allocatorIcEEEE6memberEEPvEENS_21__map_node_destructorINS6_ISC_EEEEEC1B8ue170006ILb1EvEEPSC_NS_16__dependent_typeINS_27__unique_ptr_deleter_sfinaeISF_EEXT_EE20__good_rval_ref_typeE, symObjAddr: 0xA7DC, symBinAddr: 0x10000D410, symSize: 0x3C }
  - { offsetInCU: 0x15762, offset: 0x1DA38, size: 0x8, addend: 0x0, symName: __ZNSt3__116allocator_traitsINS_9allocatorINS_11__tree_nodeINS_12__value_typeINS_12basic_stringIcNS_11char_traitsIcEENS1_IcEEEE6memberEEPvEEEEE9constructB8ue170006IKS8_JRSG_EvEEvRSD_PT_DpOT0_, symObjAddr: 0xA818, symBinAddr: 0x10000D44C, symSize: 0x34 }
  - { offsetInCU: 0x157BA, offset: 0x1DA90, size: 0x8, addend: 0x0, symName: __ZNKSt3__110unique_ptrINS_11__tree_nodeINS_12__value_typeINS_12basic_stringIcNS_11char_traitsIcEENS_9allocatorIcEEEE6memberEEPvEENS_21__map_node_destructorINS6_ISC_EEEEEptB8ue170006Ev, symObjAddr: 0xA84C, symBinAddr: 0x10000D480, symSize: 0x28 }
  - { offsetInCU: 0x157DE, offset: 0x1DAB4, size: 0x8, addend: 0x0, symName: __ZNSt3__110unique_ptrINS_11__tree_nodeINS_12__value_typeINS_12basic_stringIcNS_11char_traitsIcEENS_9allocatorIcEEEE6memberEEPvEENS_21__map_node_destructorINS6_ISC_EEEEE11get_deleterB8ue170006Ev, symObjAddr: 0xA874, symBinAddr: 0x10000D4A8, symSize: 0x24 }
  - { offsetInCU: 0x15808, offset: 0x1DADE, size: 0x8, addend: 0x0, symName: __ZNSt3__116allocator_traitsINS_9allocatorINS_11__tree_nodeINS_12__value_typeINS_12basic_stringIcNS_11char_traitsIcEENS1_IcEEEE6memberEEPvEEEEE9constructB8ue170006IS9_JEvEEvRSD_PT_DpOT0_, symObjAddr: 0xA898, symBinAddr: 0x10000D4CC, symSize: 0x2C }
  - { offsetInCU: 0x1584B, offset: 0x1DB21, size: 0x8, addend: 0x0, symName: __ZNSt3__121__map_node_destructorINS_9allocatorINS_11__tree_nodeINS_12__value_typeINS_12basic_stringIcNS_11char_traitsIcEENS1_IcEEEE6memberEEPvEEEEEC2B8ue170006ERSD_, symObjAddr: 0xA8C4, symBinAddr: 0x10000D4F8, symSize: 0x28 }
  - { offsetInCU: 0x15881, offset: 0x1DB57, size: 0x8, addend: 0x0, symName: __ZNSt3__110unique_ptrINS_11__tree_nodeINS_12__value_typeINS_12basic_stringIcNS_11char_traitsIcEENS_9allocatorIcEEEE6memberEEPvEENS_21__map_node_destructorINS6_ISC_EEEEEC2B8ue170006ILb1EvEEPSC_NS_16__dependent_typeINS_27__unique_ptr_deleter_sfinaeISF_EEXT_EE20__good_rval_ref_typeE, symObjAddr: 0xA8EC, symBinAddr: 0x10000D520, symSize: 0x5C }
  - { offsetInCU: 0x158D1, offset: 0x1DBA7, size: 0x8, addend: 0x0, symName: __ZNSt3__117__compressed_pairIPNS_11__tree_nodeINS_12__value_typeINS_12basic_stringIcNS_11char_traitsIcEENS_9allocatorIcEEEE6memberEEPvEENS_21__map_node_destructorINS6_ISC_EEEEEC1B8ue170006IRSD_SG_EEOT_OT0_, symObjAddr: 0xA948, symBinAddr: 0x10000D57C, symSize: 0x3C }
  - { offsetInCU: 0x15927, offset: 0x1DBFD, size: 0x8, addend: 0x0, symName: __ZNSt3__117__compressed_pairIPNS_11__tree_nodeINS_12__value_typeINS_12basic_stringIcNS_11char_traitsIcEENS_9allocatorIcEEEE6memberEEPvEENS_21__map_node_destructorINS6_ISC_EEEEEC2B8ue170006IRSD_SG_EEOT_OT0_, symObjAddr: 0xA984, symBinAddr: 0x10000D5B8, symSize: 0x48 }
  - { offsetInCU: 0x1597E, offset: 0x1DC54, size: 0x8, addend: 0x0, symName: __ZNSt3__122__compressed_pair_elemINS_21__map_node_destructorINS_9allocatorINS_11__tree_nodeINS_12__value_typeINS_12basic_stringIcNS_11char_traitsIcEENS2_IcEEEE6memberEEPvEEEEEELi1ELb0EEC2B8ue170006ISF_vEEOT_, symObjAddr: 0xA9CC, symBinAddr: 0x10000D600, symSize: 0x24 }
  - { offsetInCU: 0x159BE, offset: 0x1DC94, size: 0x8, addend: 0x0, symName: __ZNSt3__19allocatorINS_11__tree_nodeINS_12__value_typeINS_12basic_stringIcNS_11char_traitsIcEENS0_IcEEEE6memberEEPvEEE9constructB8ue170006IKS7_JRSE_EEEvPT_DpOT0_, symObjAddr: 0xA9F0, symBinAddr: 0x10000D624, symSize: 0x30 }
  - { offsetInCU: 0x15A14, offset: 0x1DCEA, size: 0x8, addend: 0x0, symName: __ZNKSt3__117__compressed_pairIPNS_11__tree_nodeINS_12__value_typeINS_12basic_stringIcNS_11char_traitsIcEENS_9allocatorIcEEEE6memberEEPvEENS_21__map_node_destructorINS6_ISC_EEEEE5firstB8ue170006Ev, symObjAddr: 0xAA20, symBinAddr: 0x10000D654, symSize: 0x24 }
  - { offsetInCU: 0x15A38, offset: 0x1DD0E, size: 0x8, addend: 0x0, symName: __ZNSt3__117__compressed_pairIPNS_11__tree_nodeINS_12__value_typeINS_12basic_stringIcNS_11char_traitsIcEENS_9allocatorIcEEEE6memberEEPvEENS_21__map_node_destructorINS6_ISC_EEEEE6secondB8ue170006Ev, symObjAddr: 0xAA44, symBinAddr: 0x10000D678, symSize: 0x28 }
  - { offsetInCU: 0x15A5D, offset: 0x1DD33, size: 0x8, addend: 0x0, symName: __ZNSt3__122__compressed_pair_elemINS_21__map_node_destructorINS_9allocatorINS_11__tree_nodeINS_12__value_typeINS_12basic_stringIcNS_11char_traitsIcEENS2_IcEEEE6memberEEPvEEEEEELi1ELb0EE5__getB8ue170006Ev, symObjAddr: 0xAA6C, symBinAddr: 0x10000D6A0, symSize: 0x14 }
  - { offsetInCU: 0x15A81, offset: 0x1DD57, size: 0x8, addend: 0x0, symName: __ZNSt3__19allocatorINS_11__tree_nodeINS_12__value_typeINS_12basic_stringIcNS_11char_traitsIcEENS0_IcEEEE6memberEEPvEEE9constructB8ue170006IS8_JEEEvPT_DpOT0_, symObjAddr: 0xAA80, symBinAddr: 0x10000D6B4, symSize: 0x20 }
  - { offsetInCU: 0x15AC1, offset: 0x1DD97, size: 0x8, addend: 0x0, symName: __ZNSt3__117__compressed_pairIPNS_11__tree_nodeINS_12__value_typeINS_12basic_stringIcNS_11char_traitsIcEENS_9allocatorIcEEEE6memberEEPvEENS_21__map_node_destructorINS6_ISC_EEEEE5firstB8ue170006Ev, symObjAddr: 0xAAA0, symBinAddr: 0x10000D6D4, symSize: 0x24 }
  - { offsetInCU: 0x15AE5, offset: 0x1DDBB, size: 0x8, addend: 0x0, symName: __ZNSt3__110unique_ptrINS_11__tree_nodeINS_12__value_typeINS_12basic_stringIcNS_11char_traitsIcEENS_9allocatorIcEEEE6memberEEPvEENS_21__map_node_destructorINS6_ISC_EEEEED2B8ue170006Ev, symObjAddr: 0xAAC4, symBinAddr: 0x10000D6F8, symSize: 0x30 }
  - { offsetInCU: 0x15B0D, offset: 0x1DDE3, size: 0x8, addend: 0x0, symName: __ZNSt3__110unique_ptrINS_11__tree_nodeINS_12__value_typeINS_12basic_stringIcNS_11char_traitsIcEENS_9allocatorIcEEEE6memberEEPvEENS_21__map_node_destructorINS6_ISC_EEEEE5resetB8ue170006EPSC_, symObjAddr: 0xAAF4, symBinAddr: 0x10000D728, symSize: 0x78 }
  - { offsetInCU: 0x15B4F, offset: 0x1DE25, size: 0x8, addend: 0x0, symName: __ZNSt3__121__map_node_destructorINS_9allocatorINS_11__tree_nodeINS_12__value_typeINS_12basic_stringIcNS_11char_traitsIcEENS1_IcEEEE6memberEEPvEEEEEclB8ue170006EPSC_, symObjAddr: 0xAB6C, symBinAddr: 0x10000D7A0, symSize: 0xE4 }
  - { offsetInCU: 0x15B83, offset: 0x1DE59, size: 0x8, addend: 0x0, symName: __ZNSt3__116allocator_traitsINS_9allocatorINS_11__tree_nodeINS_12__value_typeINS_12basic_stringIcNS_11char_traitsIcEENS1_IcEEEE6memberEEPvEEEEE7destroyB8ue170006IS9_vvEEvRSD_PT_, symObjAddr: 0xAC50, symBinAddr: 0x10000D884, symSize: 0x14 }
  - { offsetInCU: 0x15BC0, offset: 0x1DE96, size: 0x8, addend: 0x0, symName: __ZNSt3__116allocator_traitsINS_9allocatorINS_11__tree_nodeINS_12__value_typeINS_12basic_stringIcNS_11char_traitsIcEENS1_IcEEEE6memberEEPvEEEEE7destroyB8ue170006IKS8_vvEEvRSD_PT_, symObjAddr: 0xAC64, symBinAddr: 0x10000D898, symSize: 0x28 }
  - { offsetInCU: 0x15C00, offset: 0x1DED6, size: 0x8, addend: 0x0, symName: __ZNSt3__16vectorINS_12basic_stringIcNS_11char_traitsIcEENS_9allocatorIcEEEENS4_IS6_EEE22__construct_one_at_endB8ue170006IJS6_EEEvDpOT_, symObjAddr: 0xAC8C, symBinAddr: 0x10000D8C0, symSize: 0x98 }
  - { offsetInCU: 0x15C4F, offset: 0x1DF25, size: 0x8, addend: 0x0, symName: __ZNSt3__16vectorINS_12basic_stringIcNS_11char_traitsIcEENS_9allocatorIcEEEENS4_IS6_EEE21__push_back_slow_pathIS6_EEvOT_, symObjAddr: 0xAD24, symBinAddr: 0x10000D958, symSize: 0xE0 }
  - { offsetInCU: 0x15CAC, offset: 0x1DF82, size: 0x8, addend: 0x0, symName: __ZNSt3__116allocator_traitsINS_9allocatorINS_12basic_stringIcNS_11char_traitsIcEENS1_IcEEEEEEE9constructB8ue170006IS6_JS6_EvEEvRS7_PT_DpOT0_, symObjAddr: 0xAE04, symBinAddr: 0x10000DA38, symSize: 0x34 }
  - { offsetInCU: 0x15D04, offset: 0x1DFDA, size: 0x8, addend: 0x0, symName: __ZNSt3__19allocatorINS_12basic_stringIcNS_11char_traitsIcEENS0_IcEEEEE9constructB8ue170006IS5_JS5_EEEvPT_DpOT0_, symObjAddr: 0xAE38, symBinAddr: 0x10000DA6C, symSize: 0x30 }
  - { offsetInCU: 0x15D5B, offset: 0x1E031, size: 0x8, addend: 0x0, symName: __ZNSt3__114__split_bufferINS_12basic_stringIcNS_11char_traitsIcEENS_9allocatorIcEEEERNS4_IS6_EEEC1EmmS8_, symObjAddr: 0xAE68, symBinAddr: 0x10000DA9C, symSize: 0x44 }
  - { offsetInCU: 0x15DB0, offset: 0x1E086, size: 0x8, addend: 0x0, symName: __ZNSt3__114__split_bufferINS_12basic_stringIcNS_11char_traitsIcEENS_9allocatorIcEEEERNS4_IS6_EEED1Ev, symObjAddr: 0xAFBC, symBinAddr: 0x10000DBF0, symSize: 0x2C }
  - { offsetInCU: 0x15DDB, offset: 0x1E0B1, size: 0x8, addend: 0x0, symName: __ZNSt3__114__split_bufferINS_12basic_stringIcNS_11char_traitsIcEENS_9allocatorIcEEEERNS4_IS6_EEEC2EmmS8_, symObjAddr: 0xAFE8, symBinAddr: 0x10000DC1C, symSize: 0xE0 }
  - { offsetInCU: 0x15E4C, offset: 0x1E122, size: 0x8, addend: 0x0, symName: __ZNSt3__117__compressed_pairIPNS_12basic_stringIcNS_11char_traitsIcEENS_9allocatorIcEEEERNS4_IS6_EEEC1B8ue170006IDnS9_EEOT_OT0_, symObjAddr: 0xB0C8, symBinAddr: 0x10000DCFC, symSize: 0x3C }
  - { offsetInCU: 0x15EA2, offset: 0x1E178, size: 0x8, addend: 0x0, symName: __ZNSt3__114__split_bufferINS_12basic_stringIcNS_11char_traitsIcEENS_9allocatorIcEEEERNS4_IS6_EEE7__allocB8ue170006Ev, symObjAddr: 0xB104, symBinAddr: 0x10000DD38, symSize: 0x28 }
  - { offsetInCU: 0x15EC6, offset: 0x1E19C, size: 0x8, addend: 0x0, symName: __ZNSt3__114__split_bufferINS_12basic_stringIcNS_11char_traitsIcEENS_9allocatorIcEEEERNS4_IS6_EEE9__end_capB8ue170006Ev, symObjAddr: 0xB12C, symBinAddr: 0x10000DD60, symSize: 0x28 }
  - { offsetInCU: 0x15EEA, offset: 0x1E1C0, size: 0x8, addend: 0x0, symName: __ZNSt3__117__compressed_pairIPNS_12basic_stringIcNS_11char_traitsIcEENS_9allocatorIcEEEERNS4_IS6_EEEC2B8ue170006IDnS9_EEOT_OT0_, symObjAddr: 0xB154, symBinAddr: 0x10000DD88, symSize: 0x48 }
  - { offsetInCU: 0x15F41, offset: 0x1E217, size: 0x8, addend: 0x0, symName: __ZNSt3__122__compressed_pair_elemIRNS_9allocatorINS_12basic_stringIcNS_11char_traitsIcEENS1_IcEEEEEELi1ELb0EEC2B8ue170006IS8_vEEOT_, symObjAddr: 0xB19C, symBinAddr: 0x10000DDD0, symSize: 0x20 }
  - { offsetInCU: 0x15F81, offset: 0x1E257, size: 0x8, addend: 0x0, symName: __ZNSt3__117__compressed_pairIPNS_12basic_stringIcNS_11char_traitsIcEENS_9allocatorIcEEEERNS4_IS6_EEE6secondB8ue170006Ev, symObjAddr: 0xB1BC, symBinAddr: 0x10000DDF0, symSize: 0x28 }
  - { offsetInCU: 0x15FA6, offset: 0x1E27C, size: 0x8, addend: 0x0, symName: __ZNSt3__122__compressed_pair_elemIRNS_9allocatorINS_12basic_stringIcNS_11char_traitsIcEENS1_IcEEEEEELi1ELb0EE5__getB8ue170006Ev, symObjAddr: 0xB1E4, symBinAddr: 0x10000DE18, symSize: 0x18 }
  - { offsetInCU: 0x15FC9, offset: 0x1E29F, size: 0x8, addend: 0x0, symName: __ZNSt3__117__compressed_pairIPNS_12basic_stringIcNS_11char_traitsIcEENS_9allocatorIcEEEERNS4_IS6_EEE5firstB8ue170006Ev, symObjAddr: 0xB1FC, symBinAddr: 0x10000DE30, symSize: 0x24 }
  - { offsetInCU: 0x15FED, offset: 0x1E2C3, size: 0x8, addend: 0x0, symName: __ZNSt3__129_AllocatorDestroyRangeReverseINS_9allocatorINS_12basic_stringIcNS_11char_traitsIcEENS1_IcEEEEEENS_16reverse_iteratorIPS6_EEEC1B8ue170006ERS7_RSA_SD_, symObjAddr: 0xB3CC, symBinAddr: 0x10000E000, symSize: 0x44 }
  - { offsetInCU: 0x16043, offset: 0x1E319, size: 0x8, addend: 0x0, symName: __ZNSt3__116allocator_traitsINS_9allocatorINS_12basic_stringIcNS_11char_traitsIcEENS1_IcEEEEEEE9constructB8ue170006IS6_JRKS6_EvEEvRS7_PT_DpOT0_, symObjAddr: 0xB410, symBinAddr: 0x10000E044, symSize: 0x34 }
  - { offsetInCU: 0x1609C, offset: 0x1E372, size: 0x8, addend: 0x0, symName: __ZNSt3__128__exception_guard_exceptionsINS_29_AllocatorDestroyRangeReverseINS_9allocatorINS_12basic_stringIcNS_11char_traitsIcEENS2_IcEEEEEENS_16reverse_iteratorIPS7_EEEEE10__completeB8ue170006Ev, symObjAddr: 0xB444, symBinAddr: 0x10000E078, symSize: 0x1C }
  - { offsetInCU: 0x160BF, offset: 0x1E395, size: 0x8, addend: 0x0, symName: __ZNSt3__128__exception_guard_exceptionsINS_29_AllocatorDestroyRangeReverseINS_9allocatorINS_12basic_stringIcNS_11char_traitsIcEENS2_IcEEEEEENS_16reverse_iteratorIPS7_EEEEED1B8ue170006Ev, symObjAddr: 0xB460, symBinAddr: 0x10000E094, symSize: 0x2C }
  - { offsetInCU: 0x160E7, offset: 0x1E3BD, size: 0x8, addend: 0x0, symName: __ZNSt3__128__exception_guard_exceptionsINS_29_AllocatorDestroyRangeReverseINS_9allocatorINS_12basic_stringIcNS_11char_traitsIcEENS2_IcEEEEEENS_16reverse_iteratorIPS7_EEEEEC1B8ue170006ESC_, symObjAddr: 0xB48C, symBinAddr: 0x10000E0C0, symSize: 0x34 }
  - { offsetInCU: 0x1611F, offset: 0x1E3F5, size: 0x8, addend: 0x0, symName: __ZNSt3__128__exception_guard_exceptionsINS_29_AllocatorDestroyRangeReverseINS_9allocatorINS_12basic_stringIcNS_11char_traitsIcEENS2_IcEEEEEENS_16reverse_iteratorIPS7_EEEEEC2B8ue170006ESC_, symObjAddr: 0xB4C0, symBinAddr: 0x10000E0F4, symSize: 0x30 }
  - { offsetInCU: 0x16156, offset: 0x1E42C, size: 0x8, addend: 0x0, symName: __ZNSt3__129_AllocatorDestroyRangeReverseINS_9allocatorINS_12basic_stringIcNS_11char_traitsIcEENS1_IcEEEEEENS_16reverse_iteratorIPS6_EEEC2B8ue170006ERS7_RSA_SD_, symObjAddr: 0xB4F0, symBinAddr: 0x10000E124, symSize: 0x38 }
  - { offsetInCU: 0x161AA, offset: 0x1E480, size: 0x8, addend: 0x0, symName: __ZNSt3__19allocatorINS_12basic_stringIcNS_11char_traitsIcEENS0_IcEEEEE9constructB8ue170006IS5_JRKS5_EEEvPT_DpOT0_, symObjAddr: 0xB528, symBinAddr: 0x10000E15C, symSize: 0x30 }
  - { offsetInCU: 0x16200, offset: 0x1E4D6, size: 0x8, addend: 0x0, symName: __ZNSt3__128__exception_guard_exceptionsINS_29_AllocatorDestroyRangeReverseINS_9allocatorINS_12basic_stringIcNS_11char_traitsIcEENS2_IcEEEEEENS_16reverse_iteratorIPS7_EEEEED2B8ue170006Ev, symObjAddr: 0xB558, symBinAddr: 0x10000E18C, symSize: 0x48 }
  - { offsetInCU: 0x16228, offset: 0x1E4FE, size: 0x8, addend: 0x0, symName: __ZNKSt3__129_AllocatorDestroyRangeReverseINS_9allocatorINS_12basic_stringIcNS_11char_traitsIcEENS1_IcEEEEEENS_16reverse_iteratorIPS6_EEEclB8ue170006Ev, symObjAddr: 0xB5A0, symBinAddr: 0x10000E1D4, symSize: 0xB4 }
  - { offsetInCU: 0x1624D, offset: 0x1E523, size: 0x8, addend: 0x0, symName: __ZNSt3__116reverse_iteratorINS0_IPNS_12basic_stringIcNS_11char_traitsIcEENS_9allocatorIcEEEEEEEC1B8ue170006ES8_, symObjAddr: 0xB6C4, symBinAddr: 0x10000E2F8, symSize: 0x3C }
  - { offsetInCU: 0x16283, offset: 0x1E559, size: 0x8, addend: 0x0, symName: __ZNSt3__116reverse_iteratorINS0_IPNS_12basic_stringIcNS_11char_traitsIcEENS_9allocatorIcEEEEEEEppB8ue170006Ev, symObjAddr: 0xB784, symBinAddr: 0x10000E3B8, symSize: 0x30 }
  - { offsetInCU: 0x162A8, offset: 0x1E57E, size: 0x8, addend: 0x0, symName: __ZNKSt3__116reverse_iteratorINS0_IPNS_12basic_stringIcNS_11char_traitsIcEENS_9allocatorIcEEEEEEE4baseB8ue170006Ev, symObjAddr: 0xB7B4, symBinAddr: 0x10000E3E8, symSize: 0x24 }
  - { offsetInCU: 0x162D1, offset: 0x1E5A7, size: 0x8, addend: 0x0, symName: __ZNSt3__119__to_address_helperINS_16reverse_iteratorINS1_IPNS_12basic_stringIcNS_11char_traitsIcEENS_9allocatorIcEEEEEEEEvE6__callB8ue170006ERKSA_, symObjAddr: 0xB7D8, symBinAddr: 0x10000E40C, symSize: 0x4C }
  - { offsetInCU: 0x162F2, offset: 0x1E5C8, size: 0x8, addend: 0x0, symName: __ZNKSt3__116reverse_iteratorINS0_IPNS_12basic_stringIcNS_11char_traitsIcEENS_9allocatorIcEEEEEEEptB8ue170006Ev, symObjAddr: 0xB824, symBinAddr: 0x10000E458, symSize: 0x24 }
  - { offsetInCU: 0x16316, offset: 0x1E5EC, size: 0x8, addend: 0x0, symName: __ZNKSt3__116reverse_iteratorINS0_IPNS_12basic_stringIcNS_11char_traitsIcEENS_9allocatorIcEEEEEEEdeB8ue170006Ev, symObjAddr: 0xB848, symBinAddr: 0x10000E47C, symSize: 0x34 }
  - { offsetInCU: 0x16349, offset: 0x1E61F, size: 0x8, addend: 0x0, symName: __ZNSt3__116reverse_iteratorIPNS_12basic_stringIcNS_11char_traitsIcEENS_9allocatorIcEEEEEmmB8ue170006Ev, symObjAddr: 0xB87C, symBinAddr: 0x10000E4B0, symSize: 0x20 }
  - { offsetInCU: 0x1636D, offset: 0x1E643, size: 0x8, addend: 0x0, symName: __ZNSt3__116reverse_iteratorINS0_IPNS_12basic_stringIcNS_11char_traitsIcEENS_9allocatorIcEEEEEEEC2B8ue170006ES8_, symObjAddr: 0xB89C, symBinAddr: 0x10000E4D0, symSize: 0x2C }
  - { offsetInCU: 0x163A3, offset: 0x1E679, size: 0x8, addend: 0x0, symName: __ZNSt3__114__split_bufferINS_12basic_stringIcNS_11char_traitsIcEENS_9allocatorIcEEEERNS4_IS6_EEED2Ev, symObjAddr: 0xB8C8, symBinAddr: 0x10000E4FC, symSize: 0x80 }
  - { offsetInCU: 0x163CD, offset: 0x1E6A3, size: 0x8, addend: 0x0, symName: __ZNSt3__114__split_bufferINS_12basic_stringIcNS_11char_traitsIcEENS_9allocatorIcEEEERNS4_IS6_EEE5clearB8ue170006Ev, symObjAddr: 0xB948, symBinAddr: 0x10000E57C, symSize: 0x28 }
  - { offsetInCU: 0x163F1, offset: 0x1E6C7, size: 0x8, addend: 0x0, symName: __ZNKSt3__114__split_bufferINS_12basic_stringIcNS_11char_traitsIcEENS_9allocatorIcEEEERNS4_IS6_EEE8capacityB8ue170006Ev, symObjAddr: 0xB970, symBinAddr: 0x10000E5A4, symSize: 0x40 }
  - { offsetInCU: 0x16415, offset: 0x1E6EB, size: 0x8, addend: 0x0, symName: __ZNSt3__114__split_bufferINS_12basic_stringIcNS_11char_traitsIcEENS_9allocatorIcEEEERNS4_IS6_EEE17__destruct_at_endB8ue170006EPS6_, symObjAddr: 0xB9B0, symBinAddr: 0x10000E5E4, symSize: 0x2C }
  - { offsetInCU: 0x16447, offset: 0x1E71D, size: 0x8, addend: 0x0, symName: __ZNSt3__114__split_bufferINS_12basic_stringIcNS_11char_traitsIcEENS_9allocatorIcEEEERNS4_IS6_EEE17__destruct_at_endB8ue170006EPS6_NS_17integral_constantIbLb0EEE, symObjAddr: 0xB9DC, symBinAddr: 0x10000E610, symSize: 0x94 }
  - { offsetInCU: 0x16485, offset: 0x1E75B, size: 0x8, addend: 0x0, symName: __ZNKSt3__114__split_bufferINS_12basic_stringIcNS_11char_traitsIcEENS_9allocatorIcEEEERNS4_IS6_EEE9__end_capB8ue170006Ev, symObjAddr: 0xBA70, symBinAddr: 0x10000E6A4, symSize: 0x28 }
  - { offsetInCU: 0x164A9, offset: 0x1E77F, size: 0x8, addend: 0x0, symName: __ZNKSt3__117__compressed_pairIPNS_12basic_stringIcNS_11char_traitsIcEENS_9allocatorIcEEEERNS4_IS6_EEE5firstB8ue170006Ev, symObjAddr: 0xBA98, symBinAddr: 0x10000E6CC, symSize: 0x24 }
  - { offsetInCU: 0x164CD, offset: 0x1E7A3, size: 0x8, addend: 0x0, symName: __ZNSt3__16vectorINS_12basic_stringIcNS_11char_traitsIcEENS_9allocatorIcEEEENS4_IS6_EEE11__make_iterB8ue170006EPS6_, symObjAddr: 0xBABC, symBinAddr: 0x10000E6F0, symSize: 0x30 }
  - { offsetInCU: 0x16500, offset: 0x1E7D6, size: 0x8, addend: 0x0, symName: __ZNSt3__111__wrap_iterIPNS_12basic_stringIcNS_11char_traitsIcEENS_9allocatorIcEEEEEC1B8ue170006ES7_, symObjAddr: 0xBAEC, symBinAddr: 0x10000E720, symSize: 0x34 }
  - { offsetInCU: 0x16537, offset: 0x1E80D, size: 0x8, addend: 0x0, symName: __ZNSt3__111__wrap_iterIPNS_12basic_stringIcNS_11char_traitsIcEENS_9allocatorIcEEEEEC2B8ue170006ES7_, symObjAddr: 0xBB20, symBinAddr: 0x10000E754, symSize: 0x20 }
  - { offsetInCU: 0x1656D, offset: 0x1E843, size: 0x8, addend: 0x0, symName: __ZNKSt3__111__wrap_iterIPNS_12basic_stringIcNS_11char_traitsIcEENS_9allocatorIcEEEEE4baseB8ue170006Ev, symObjAddr: 0xBB88, symBinAddr: 0x10000E7BC, symSize: 0x18 }
...
